
TIMER8BIT.elf:     file format elf32-avr

Sections:
Idx Name          Size      VMA       LMA       File off  Algn
  0 .text         000034ec  00000000  00000000  00000094  2**1
                  CONTENTS, ALLOC, LOAD, READONLY, CODE
  1 .data         00000012  00800060  000034ec  00003580  2**0
                  CONTENTS, ALLOC, LOAD, DATA
  2 .bss          00000005  00800072  00800072  00003592  2**0
                  ALLOC
  3 .stab         00002238  00000000  00000000  00003594  2**2
                  CONTENTS, READONLY, DEBUGGING
  4 .stabstr      000010d5  00000000  00000000  000057cc  2**0
                  CONTENTS, READONLY, DEBUGGING
  5 .comment      00000011  00000000  00000000  000068a1  2**0
                  CONTENTS, READONLY

Disassembly of section .text:

00000000 <__vectors>:
       0:	0c 94 a9 15 	jmp	0x2b52	; 0x2b52 <__ctors_end>
       4:	0c 94 c6 15 	jmp	0x2b8c	; 0x2b8c <__bad_interrupt>
       8:	0c 94 c6 15 	jmp	0x2b8c	; 0x2b8c <__bad_interrupt>
       c:	0c 94 c6 15 	jmp	0x2b8c	; 0x2b8c <__bad_interrupt>
      10:	0c 94 c6 15 	jmp	0x2b8c	; 0x2b8c <__bad_interrupt>
      14:	0c 94 c6 15 	jmp	0x2b8c	; 0x2b8c <__bad_interrupt>
      18:	0c 94 c6 15 	jmp	0x2b8c	; 0x2b8c <__bad_interrupt>
      1c:	0c 94 c6 15 	jmp	0x2b8c	; 0x2b8c <__bad_interrupt>
      20:	0c 94 c6 15 	jmp	0x2b8c	; 0x2b8c <__bad_interrupt>
      24:	0c 94 c6 15 	jmp	0x2b8c	; 0x2b8c <__bad_interrupt>
      28:	0c 94 c6 15 	jmp	0x2b8c	; 0x2b8c <__bad_interrupt>
      2c:	0c 94 48 19 	jmp	0x3290	; 0x3290 <__vector_11>
      30:	0c 94 c6 15 	jmp	0x2b8c	; 0x2b8c <__bad_interrupt>
      34:	0c 94 c6 15 	jmp	0x2b8c	; 0x2b8c <__bad_interrupt>
      38:	0c 94 c6 15 	jmp	0x2b8c	; 0x2b8c <__bad_interrupt>
      3c:	0c 94 c6 15 	jmp	0x2b8c	; 0x2b8c <__bad_interrupt>
      40:	0c 94 c6 15 	jmp	0x2b8c	; 0x2b8c <__bad_interrupt>
      44:	0c 94 c6 15 	jmp	0x2b8c	; 0x2b8c <__bad_interrupt>
      48:	0c 94 c6 15 	jmp	0x2b8c	; 0x2b8c <__bad_interrupt>
      4c:	0c 94 c6 15 	jmp	0x2b8c	; 0x2b8c <__bad_interrupt>
      50:	0c 94 c6 15 	jmp	0x2b8c	; 0x2b8c <__bad_interrupt>
      54:	37 16       	cp	r3, r23
      56:	37 16       	cp	r3, r23
      58:	37 16       	cp	r3, r23
      5a:	37 16       	cp	r3, r23
      5c:	37 16       	cp	r3, r23
      5e:	37 16       	cp	r3, r23
      60:	37 16       	cp	r3, r23
      62:	37 16       	cp	r3, r23
      64:	74 16       	cp	r7, r20
      66:	74 16       	cp	r7, r20
      68:	74 16       	cp	r7, r20
      6a:	74 16       	cp	r7, r20
      6c:	74 16       	cp	r7, r20
      6e:	74 16       	cp	r7, r20
      70:	74 16       	cp	r7, r20
      72:	74 16       	cp	r7, r20
      74:	b1 16       	cp	r11, r17
      76:	b1 16       	cp	r11, r17
      78:	b1 16       	cp	r11, r17
      7a:	b1 16       	cp	r11, r17
      7c:	b1 16       	cp	r11, r17
      7e:	b1 16       	cp	r11, r17
      80:	b1 16       	cp	r11, r17
      82:	b1 16       	cp	r11, r17
      84:	ee 16       	cp	r14, r30
      86:	ee 16       	cp	r14, r30
      88:	ee 16       	cp	r14, r30
      8a:	ee 16       	cp	r14, r30
      8c:	ee 16       	cp	r14, r30
      8e:	ee 16       	cp	r14, r30
      90:	ee 16       	cp	r14, r30
      92:	ee 16       	cp	r14, r30
      94:	63 17       	cp	r22, r19
      96:	63 17       	cp	r22, r19
      98:	63 17       	cp	r22, r19
      9a:	63 17       	cp	r22, r19
      9c:	63 17       	cp	r22, r19
      9e:	63 17       	cp	r22, r19
      a0:	63 17       	cp	r22, r19
      a2:	63 17       	cp	r22, r19
      a4:	a0 17       	cp	r26, r16
      a6:	a0 17       	cp	r26, r16
      a8:	a0 17       	cp	r26, r16
      aa:	a0 17       	cp	r26, r16
      ac:	a0 17       	cp	r26, r16
      ae:	a0 17       	cp	r26, r16
      b0:	a0 17       	cp	r26, r16
      b2:	a0 17       	cp	r26, r16
      b4:	dd 17       	cp	r29, r29
      b6:	dd 17       	cp	r29, r29
      b8:	dd 17       	cp	r29, r29
      ba:	dd 17       	cp	r29, r29
      bc:	dd 17       	cp	r29, r29
      be:	dd 17       	cp	r29, r29
      c0:	dd 17       	cp	r29, r29
      c2:	dd 17       	cp	r29, r29
      c4:	1a 18       	sub	r1, r10
      c6:	1a 18       	sub	r1, r10
      c8:	1a 18       	sub	r1, r10
      ca:	1a 18       	sub	r1, r10
      cc:	1a 18       	sub	r1, r10
      ce:	1a 18       	sub	r1, r10
      d0:	1a 18       	sub	r1, r10
      d2:	1a 18       	sub	r1, r10
      d4:	8c 18       	sub	r8, r12
      d6:	8c 18       	sub	r8, r12
      d8:	8c 18       	sub	r8, r12
      da:	8c 18       	sub	r8, r12
      dc:	8c 18       	sub	r8, r12
      de:	8c 18       	sub	r8, r12
      e0:	8c 18       	sub	r8, r12
      e2:	8c 18       	sub	r8, r12
      e4:	a2 18       	sub	r10, r2
      e6:	a2 18       	sub	r10, r2
      e8:	a2 18       	sub	r10, r2
      ea:	a2 18       	sub	r10, r2
      ec:	a2 18       	sub	r10, r2
      ee:	a2 18       	sub	r10, r2
      f0:	a2 18       	sub	r10, r2
      f2:	a2 18       	sub	r10, r2
      f4:	ba 18       	sub	r11, r10
      f6:	ba 18       	sub	r11, r10
      f8:	ba 18       	sub	r11, r10
      fa:	ba 18       	sub	r11, r10
      fc:	ba 18       	sub	r11, r10
      fe:	ba 18       	sub	r11, r10
     100:	ba 18       	sub	r11, r10
     102:	ba 18       	sub	r11, r10
     104:	d2 18       	sub	r13, r2
     106:	d2 18       	sub	r13, r2
     108:	d2 18       	sub	r13, r2
     10a:	d2 18       	sub	r13, r2
     10c:	d2 18       	sub	r13, r2
     10e:	d2 18       	sub	r13, r2
     110:	d2 18       	sub	r13, r2
     112:	d2 18       	sub	r13, r2

00000114 <var>:
     114:	80 80 80 80 80 80 80 80 80 80 80 80 80 80 80 80     ................
     124:	80 80 80 80 80 80 80 80 80 80 80 80 80 80 80 80     ................
     134:	80 80 80 80 80 80 80 80 80 80 80 80 80 80 80 80     ................
     144:	80 80 80 80 80 80 80 80 80 80 80 80 80 80 80 80     ................
     154:	80 80 80 80 80 80 80 80 80 80 80 80 80 80 80 80     ................
     164:	80 80 80 80 80 80 7f 7f 80 80 7f 80 7f 80 7f 80     ................
     174:	80 7f 80 7f 80 7f 80 7f 80 80 7f 80 7f 7f 7f 80     ................
     184:	80 80 7f 7f 80 80 80 7f 80 80 80 80 7f 7f 7f 80     ................
     194:	80 7f 80 80 7f 7f 80 80 80 7f 7f 80 7f 80 7f 80     ................
     1a4:	7f 80 7f 7f 80 7f 80 7f 80 7f 80 7f 80 7f 7f 80     ................
     1b4:	81 81 80 7f 80 81 80 7f 7e 7e 7e 7e 7f 7f 7e 80     ........~~~~..~.
     1c4:	80 80 81 80 81 80 80 81 7f 7d 7f 7f 7f 80 7f 7f     .........}......
     1d4:	80 80 81 80 7e 7f 7f 7f 80 7f 80 80 80 81 80 7e     ....~..........~
     1e4:	7f 80 80 81 80 7f 7f 7f 80 80 7e 7f 80 7f 80 80     ..........~.....
     1f4:	81 7f 7f 81 80 7d 7e 7f 7f 80 80 81 7f 80 81 80     .....}~.........
     204:	7e 7e 7f 7f 80 7f 80 7f 7f 81 80 7e 7e 80 7f 80     ~~.........~~...
     214:	80 81 7f 7f 80 7f 7e 7e 7f 7f 80 80 80 7f 80 81     ......~~........
     224:	80 7e 7e 80 7f 7f 7f 80 7f 7f 81 80 7f 7e 80 7f     .~~..........~..
     234:	7f 7f 80 7f 7f 80 80 7e 7e 80 7f 80 80 80 80 7f     .......~~.......
     244:	80 80 7f 7e 7f 7f 7f 80 80 80 7f 80 80 7f 7e 7f     ...~..........~.
     254:	80 7f 80 80 7f 7f 80 80 7f 7f 7f 80 80 80 80 80     ................
     264:	7f 7f 80 7f 7e 7f 80 7f 80 80 7f 7f 80 80 7f 7f     ....~...........
     274:	7f 80 7f 7f 7f 80 80 80 80 80 7f 7f 7f 7f 7f 80     ................
     284:	7f 7f 7f 80 80 80 7f 80 7f 7f 7f 80 80 80 80 80     ................
     294:	7f 7f 7f 7f 7f 7f 80 7f 7f 80 80 7f 7f 7f 7f 7f     ................
     2a4:	7f 7f 7f 80 80 80 80 80 7f 80 7f 7f 80 7f 7f 80     ................
     2b4:	7f 7f 80 7f 80 7f 7f 80 80 80 80 80 80 7f 7f 7f     ................
     2c4:	7f 80 80 80 7f 80 7f 7f 80 80 80 80 7f 7f 7f 7f     ................
     2d4:	7f 80 80 80 80 80 7f 7f 7f 80 80 7f 80 7f 80 7f     ................
     2e4:	7f 80 7f 7f 7f 7f 7f 80 80 80 80 7f 7f 7f 7f 80     ................
     2f4:	80 80 80 7f 7f 80 80 80 80 7f 7f 7f 7f 80 80 80     ................
     304:	7f 7f 80 7f 7f 80 80 80 80 7f 7f 80 80 80 7f 80     ................
     314:	7f 7f 7f 7f 7f 7f 80 80 80 80 80 80 80 7f 7f 80     ................
     324:	80 7f 80 80 7f 80 80 7f 7f 7f 7f 7f 7f 80 80 7f     ................
     334:	7f 80 7f 80 80 80 80 80 80 7f 80 80 7f 7f 7f 7f     ................
     344:	7f 7f 80 7f 7f 7f 7f 7f 7f 80 7f 80 80 80 80 80     ................
     354:	80 80 80 80 81 80 7f 80 7f 7f 7f 7e 7f 7f 7f 7f     ...........~....
     364:	7e 7f 7f 80 80 7f 7f 80 80 7f 80 80 7f 7e 7f 7f     ~............~..
     374:	80 81 7f 7f 7e 7e 80 81 7e 7f 81 80 7e 81 84 85     ....~~..~...~...
     384:	85 82 82 83 81 7f 7d 7d 7d 7b 7b 7c 7c 7c 7c 7d     ......}}}{{||||}
     394:	7f 7e 82 81 81 83 7f 7e 81 80 81 86 85 85 82 7f     .~.....~........
     3a4:	7e 7d 81 86 8a 7d 7a 7d 78 7d 79 76 7c 85 80 7e     ~}...}z}x}yv|..~
     3b4:	80 7b 7b 7d 81 7e 86 88 81 82 85 83 80 7e 7d 7e     .{{}.~.......~}~
     3c4:	81 87 7e 8a 81 76 78 74 78 75 88 83 7e 81 79 7b     ..~..vxtxu..~.y{
     3d4:	84 87 82 89 8b 82 7d 80 83 7a 7d 80 79 7a 7f 80     ......}..z}.yz..
     3e4:	86 95 81 71 73 6f 72 76 74 7d 89 81 82 88 84 83     ...qsorvt}......
     3f4:	8b 90 8a 86 84 7b 76 78 6c 74 81 7b 86 83 89 83     .....{vxlt.{....
     404:	7f 81 73 77 7d 7c 7c 85 86 84 7e 82 85 84 89 86     ..sw}||...~.....
     414:	86 86 87 7e 78 73 78 63 67 88 7e 7b 90 98 81 81     ...~xsxcg.~{....
     424:	82 84 86 88 74 7a 81 70 7b 85 8a 7f 7f 7e 7c 82     ....tz.p{....~|.
     434:	83 8b 7a 7d 83 7a 75 69 88 8a 7c 8e 8e 87 81 6a     ..z}.zui..|....j
     444:	83 84 83 82 74 7f 82 87 6f 8a 8d 7b 86 83 78 7d     ....t...o..{..x}
     454:	8d 80 6c 7e 7c 74 8b 8d 83 78 80 81 74 87 7d 74     ..l~|t...x..t.}t
     464:	8c 84 83 7c 72 7b 8d 7c 76 8c 84 82 8b 81 73 7a     ...|r{.|v.....sz
     474:	80 78 77 84 7f 82 8e 83 7b 79 7b 7c 7d 87 87 82     .xw.....{y{|}...
     484:	84 81 7a 76 77 7b 7e 84 86 85 83 83 82 7e 7a 7a     ..zvw{~......~zz
     494:	7a 7b 7f 81 82 83 83 83 81 7e 7b 7c 7d 7f 81 81     z{.......~{|}...
     4a4:	80 80 80 7f 7e 7d 7d 7f 80 82 82 82 81 81 7f 7d     ....~}}........}
     4b4:	7c 7b 7d 7f 81 82 82 82 82 81 80 7d 7d 7d 7e 7f     |{}........}}}~.
     4c4:	80 81 80 81 81 80 7f 7e 7e 7f 80 80 80 7f 80 7f     .......~~.......
     4d4:	7f 7f 7e 7e 7f 80 80 81 81 81 80 80 7f 7e 7e 7e     ..~~.........~~~
     4e4:	7f 80 80 80 80 80 80 7f 7f 7f 7f 7f 7f 7f 80 80     ................
     4f4:	80 80 80 7f 7f 7f 7f 80 80 80 80 80 80 7f 7f 7e     ...............~
     504:	7e 7f 80 80 80 80 80 80 80 7f 7f 7f 7f 7f 7f 80     ~...............
     514:	80 80 80 80 7f 7f 7f 7f 7f 80 80 7f 7f 80 7f 7f     ................
     524:	7f 7f 7f 7f 7f 80 80 80 80 80 7f 7f 7f 7f 7f 80     ................
     534:	80 80 80 80 80 80 7f 7f 7f 7f 7f 7f 80 80 80 80     ................
     544:	80 7f 80 7f 7f 7f 7f 7f 80 80 80 80 80 7f 7f 7f     ................
     554:	7f 80 7f 80 80 80 80 7f 7f 7f 7f 7f 7f 7f 80 80     ................
     564:	80 80 80 7f 7f 7f 7f 7f 7f 80 80 80 7f 80 7f 80     ................
     574:	80 80 7f 7f 80 7f 7f 80 7f 7f 7f 7f 7f 7f 7f 7f     ................
     584:	80 80 80 80 7f 80 80 7f 7f 7f 7f 7f 80 80 80 80     ................
     594:	80 80 7f 7f 7f 7f 7f 7f 7f 7f 80 80 80 80 80 7f     ................
     5a4:	80 80 80 80 80 80 7f 7f 7f 7f 7f 80 80 80 7f 80     ................
     5b4:	7f 80 80 7f 7f 80 80 7f 80 80 80 80 80 80 80 80     ................
     5c4:	7f 7f 7f 7f 7f 7f 80 7f 7f 80 80 80 80 7f 7f 80     ................
     5d4:	80 80 80 80 7f 80 7f 7f 7f 80 80 80 80 7f 7f 7f     ................
     5e4:	80 7f 7f 80 7f 7f 80 80 80 7f 7f 80 80 80 7f 7f     ................
     5f4:	80 80 80 7f 7f 7f 7f 7f 7f 7f 7f 80 80 80 80 80     ................
     604:	80 80 7f 7f 7f 7f 80 80 80 80 7f 80 80 80 80 7f     ................
     614:	7f 7f 7f 7f 7f 80 80 80 80 7f 7f 80 80 7f 80 7f     ................
     624:	7f 80 80 80 80 80 7f 80 80 7f 7f 7f 80 80 80 80     ................
     634:	80 7f 7f 7f 7e 80 86 82 80 80 7c 80 7f 7c 7c 7f     ....~.....|..||.
     644:	83 7f 81 81 7c 81 81 7e 7d 7d 82 80 7e 82 7d 7f     ....|..~}}..~.}.
     654:	87 80 7f 7c 7b 82 7f 7f 80 81 84 80 81 7f 7b 7f     ...|{.........{.
     664:	7e 7c 7d 7d 81 82 81 84 7f 7e 81 80 7e 7d 7f 7f     ~|}}.....~..~}..
     674:	80 82 81 7f 80 80 80 7d 7e 7f 7e 80 81 80 81 7f     .......}~.~.....
     684:	80 7f 7d 7f 7f 7f 81 82 80 80 7f 7f 7f 7e 7f 7e     ..}..........~.~
     694:	7f 81 81 80 81 80 80 7f 7e 7f 7f 7e 81 80 7f 80     ........~..~....
     6a4:	7f 80 80 7f 80 7f 7f 80 80 7f 81 81 80 80 7e 7e     ..............~~
     6b4:	7e 7f 80 80 7f 80 80 7f 80 7f 7f 7f 7f 80 80 7f     ~...............
     6c4:	80 81 80 80 7f 7f 7f 7f 80 81 7f 80 80 7f 7f 7f     ................
     6d4:	7f 80 7f 80 80 7f 80 80 7f 7f 7f 7e 7f 7f 80 80     ...........~....
     6e4:	7f 80 81 7f 80 80 7f 80 80 80 80 7f 7f 80 7f 80     ................
     6f4:	80 7f 7f 7f 7f 80 7f 80 81 7f 80 7f 7e 80 7f 7f     ............~...
     704:	80 7f 80 81 7f 7f 80 7f 80 7f 7f 80 7f 80 80 7f     ................
     714:	7f 80 7f 80 80 80 80 7f 80 80 7f 7f 7f 7f 80 80     ................
     724:	80 80 80 80 80 7f 80 80 7f 7f 80 7f 7f 80 80 80     ................
     734:	80 80 80 7f 80 7f 7f 80 7f 7f 80 80 80 80 7f 80     ................
     744:	7f 7f 80 80 80 80 7f 7f 7f 7f 7f 80 7f 80 7f 80     ................
     754:	80 80 7f 7f 7f 7f 80 80 80 80 80 80 80 7f 80 80     ................
     764:	7f 7f 7f 7f 7f 7f 80 80 80 80 80 7f 80 7f 80 80     ................
     774:	7f 80 80 80 7f 7f 7f 7f 7f 7f 80 80 80 80 80 80     ................
     784:	80 80 80 7f 7f 7f 7f 80 80 80 80 7f 80 7f 80 80     ................
     794:	80 7f 80 80 7f 7f 7f 7f 7f 80 80 80 80 80 80 7f     ................
     7a4:	7f 7f 7f 7f 80 80 7f 80 7f 80 80 80 80 7f 80 80     ................
     7b4:	7f 7f 7f 7f 7f 7f 7f 7f 80 7f 7f 80 80 80 80 80     ................
     7c4:	80 7f 7f 7f 80 80 80 7f 7f 7f 7f 7f 7f 7f 7f 7f     ................
     7d4:	80 80 80 80 80 7f 7f 80 7f 7f 7f 80 80 80 80 80     ................
     7e4:	80 80 80 7f 7f 7f 7f 7f 7f 80 80 7f 7f 80 7f 7f     ................
     7f4:	80 7f 7f 7f 7f 7f 80 80 80 80 80 80 7f 7f 7f 7f     ................
     804:	7f 7f 7f 7f 7f 7f 7f 7f 80 80 80 7f 7f 7f 7f 80     ................
     814:	7f 7f 7f 7f 7f 7f 80 80 80 80 80 80 80 7f 7f 7f     ................
     824:	7f 7f 7f 7f 80 80 7f 7f 80 80 80 80 80 80 80 80     ................
     834:	7f 7f 80 7f 80 80 80 80 7f 7f 7f 7f 7f 80 7f 7f     ................
     844:	80 80 80 80 80 80 80 7f 7f 7f 80 7f 80 80 80 80     ................
     854:	7f 7f 7f 7f 80 7f 7f 80 7f 7f 7f 80 80 7f 7f 7f     ................
     864:	7f 7f 7f 7f 7f 7f 7f 80 80 7f 80 80 7f 7f 7f 7f     ................
     874:	80 80 80 80 80 80 80 7f 7f 7f 7f 7f 7f 7f 80 80     ................
     884:	80 80 80 7f 80 80 80 7f 80 80 7f 7f 80 7f 7f 80     ................
     894:	80 7f 80 80 7f 7f 80 7f 80 80 80 80 7f 7f 7f 7f     ................
     8a4:	80 7f 7f 80 80 7f 80 80 7f 7f 7f 7f 7f 80 80 80     ................
     8b4:	80 80 7f 80 7f 7f 7f 7f 7f 80 80 80 80 80 80 7f     ................
     8c4:	7f 7f 7f 7f 7f 7f 80 80 80 80 7f 7f 80 80 7f 80     ................
     8d4:	80 7f 7f 7f 7f 80 80 80 7f 80 80 7f 80 80 7f 7f     ................
     8e4:	7f 7f 80 80 80 80 7f 7f 7f 7f 7f 80 80 7f 7f 7f     ................
     8f4:	7f 80 80 80 80 80 80 7f 80 80 7f 7f 7f 7f 80 80     ................
     904:	7f 7f 80 7f 7f 7f 80 80 7f 80 7f 7f 7f 7f 80 80     ................
     914:	80 81 80 80 80 7f 80 80 80 80 7f 7f 7f 7e 7f 7f     .............~..
     924:	7f 80 7f 7f 7f 7f 80 7f 80 81 80 7f 7f 7f 80 7f     ................
     934:	7f 7f 7f 7f 7e 7f 7f 80 80 7f 80 80 80 80 80 7f     ....~...........
     944:	7f 80 7d 84 85 7f 81 80 7c 7d 7f 80 7f 7e 7e 7e     ..}.....|}...~~~
     954:	7e 81 83 82 82 81 7e 7c 7f 7e 7e 84 82 7d 7e 7e     ~.....~|.~~..}~~
     964:	7c 7e 83 81 80 7d 7d 7e 7e 82 83 82 7f 7e 7c 7e     |~...}}~~....~|~
     974:	7f 84 87 80 7f 7b 7c 80 80 7c 7f 87 7e 7e 82 7b     .....{|..|..~~.{
     984:	7f 83 80 7f 7a 7e 81 7d 82 83 82 81 7f 7c 7d 7e     ....z~.}.....|}~
     994:	81 7e 7b 86 7f 7c 83 7e 80 83 7e 7f 7e 7e 84 7f     .~{..|.~..~.~~..
     9a4:	7f 81 7d 80 81 7e 7f 80 7f 82 7f 7f 80 7f 80 80     ..}..~..........
     9b4:	7f 7f 7f 7e 82 80 7f 81 7f 7f 80 7f 7f 7f 7e 81     ...~..........~.
     9c4:	80 7f 81 80 7f 81 7f 7f 80 7e 80 81 7f 80 7f 7f     .........~......
     9d4:	80 7f 7f 80 7f 80 80 7f 80 80 7f 80 7f 7f 80 7f     ................
     9e4:	80 80 7f 80 80 7f 80 80 80 80 7f 7f 80 7f 7f 80     ................
     9f4:	7f 80 80 80 7f 7f 80 80 7f 80 80 7f 7f 80 7f 7f     ................
     a04:	7f 7f 80 80 80 80 7f 80 80 7f 80 7f 7f 80 80 7f     ................
     a14:	80 80 80 80 80 80 7f 7f 7f 7f 7f 7f 7f 7f 80 7f     ................
     a24:	80 7f 7f 80 80 7f 80 80 7f 80 7f 7f 7f 7f 80 80     ................
     a34:	80 80 80 7f 7f 7f 7f 80 7f 7f 80 7f 7f 7f 7f 80     ................
     a44:	80 80 80 80 80 80 7f 80 80 7f 80 80 80 7f 7f 7f     ................
     a54:	7f 7f 7f 7f 80 80 80 80 80 80 80 80 7f 7f 80 7f     ................
     a64:	7f 7f 80 80 80 80 7f 7f 7f 7f 7f 7f 80 7f 7f 7f     ................
     a74:	7f 7f 7f 80 80 80 80 7f 80 80 80 7f 7f 80 7f 7f     ................
     a84:	7f 7f 7f 80 80 80 80 80 80 80 7f 80 7f 7f 7f 7f     ................
     a94:	7f 7f 80 80 7f 7f 80 7f 7f 80 80 7f 7f 7f 7f 80     ................
     aa4:	80 80 7f 80 80 7f 7f 7f 7f 80 80 7f 80 7f 80 7f     ................
     ab4:	7f 7f 7f 7f 7f 80 80 80 7f 7f 7f 7f 7f 7f 7f 80     ................
     ac4:	80 80 7f 7f 80 7f 80 80 80 7f 7f 7f 7f 7f 80 80     ................
     ad4:	80 80 80 7f 7f 80 7f 7f 80 7f 7f 7f 80 7f 7f 7f     ................
     ae4:	7f 7f 7f 80 80 80 80 80 80 7f 80 80 7f 80 80 7f     ................
     af4:	7f 80 80 80 80 7f 7f 7f 80 7f 7f 7f 7f 7f 7f 80     ................
     b04:	80 80 80 80 80 7f 7f 7f 7f 7f 7f 7f 80 80 80 80     ................
     b14:	7f 7f 7f 80 7f 7f 7f 7f 7f 7f 7f 7f 7f 7f 7f 7f     ................
     b24:	7f 80 7f 80 80 80 7f 80 80 7f 7f 80 80 7f 80 80     ................
     b34:	80 80 80 7f 7f 80 7f 7f 80 80 80 80 80 80 80 80     ................
     b44:	80 7f 80 80 80 80 7f 7f 7f 7f 7f 7f 80 80 7f 7f     ................
     b54:	7f 7f 7f 7f 80 80 7f 7f 7f 7f 7f 7f 80 7f 7f 7f     ................
     b64:	7f 7f 7f 80 7f 7f 7f 7f 7f 7f 7f 7f 80 7f 7f 7f     ................
     b74:	80 80 80 80 80 7f 7f 7f 7f 7f 7f 80 80 80 7f 80     ................
     b84:	7f 7f 80 80 80 7f 7f 80 80 80 80 80 80 7f 7f 7f     ................
     b94:	80 80 80 80 7f 7f 7f 7f 7f 80 80 80 80 80 80 80     ................
     ba4:	80 80 7f 80 7f 7f 7f 7f 80 7f 7f 80 80 7f 80 80     ................
     bb4:	7f 80 80 7f 7f 80 7f 7f 80 7f 7f 7f 7f 7f 80 80     ................
     bc4:	80 80 80 80 7f 7f 7f 7f 80 80 80 80 80 80 80 7f     ................
     bd4:	80 80 80 7f 7f 80 80 80 80 80 80 7f 7f 7f 7f 7f     ................
     be4:	80 7f 7f 7f 7f 81 80 7f 80 7f 80 80 7f 7f 80 7f     ................
     bf4:	7e 83 80 7c 80 7d 7e 80 7f 80 7f 7f 7f 7f 80 7f     ~..|.}~.........
     c04:	82 81 80 7f 7f 80 80 80 80 7f 81 81 7f 88 81 7e     ...............~
     c14:	80 79 7f 7e 7c 78 80 84 7a 82 83 7e 84 82 7e 7b     .y.~|x..z..~..~{
     c24:	81 84 7b 80 7f 7c 86 80 81 84 7f 7f 77 7a 7d 81     ..{..|......wz}.
     c34:	81 80 87 7f 7b 82 7e 7e 81 7b 7c 7e 83 83 7d 81     ....{.~~.{|~..}.
     c44:	7f 81 81 7f 7e 7e 82 7c 7c 7f 7e 87 86 83 83 7b     ....~~.||.~....{
     c54:	7b 80 80 7f 7c 7c 7f 7e 7e 80 7e 81 84 80 80 80     {...||.~~.~.....
     c64:	7f 81 80 7e 80 7f 7f 82 81 84 82 80 81 7f 80 80     ...~............
     c74:	7f 7f 7c 7a 7a 7a 7e 81 83 84 82 82 82 81 7f 80     ..|zzz~.........
     c84:	7e 7e 7f 7d 7d 7f 7f 7f 80 7f 81 80 81 82 81 80     ~~.}}...........
     c94:	7e 7e 7e 7e 7f 81 7f 80 81 80 7f 80 7f 7f 7f 7f     ~~~~............
     ca4:	7f 7e 7e 80 80 80 80 80 80 80 80 80 7f 7f 7f 7f     .~~.............
     cb4:	7f 7f 7f 80 80 80 80 7f 80 80 80 7f 7f 7f 7e 7f     ..............~.
     cc4:	7f 80 7f 80 80 80 80 80 80 7f 7f 80 80 7e 7f 7f     .............~..
     cd4:	7f 80 7f 7f 7f 80 80 80 7f 7f 7f 7f 80 80 80 80     ................
     ce4:	7f 80 80 7f 7f 80 7f 80 80 7f 7f 7f 80 80 7f 7f     ................
     cf4:	80 7f 80 80 80 80 7f 80 80 7f 7e 7f 7f 80 80 80     ..........~.....
     d04:	80 80 80 80 7f 7f 7f 7f 7f 7f 80 80 7f 80 80 7f     ................
     d14:	7f 80 7f 80 80 80 7f 7f 80 7f 7f 7e 7f 7f 80 80     ...........~....
     d24:	80 80 7f 80 80 7f 7f 80 7f 7f 7f 80 80 7f 80 80     ................
     d34:	7f 7f 80 7f 7f 80 80 7f 7f 80 80 7f 7f 7f 7f 7f     ................
     d44:	80 80 80 7f 80 80 80 7f 7f 7f 7f 80 80 80 7f 80     ................
     d54:	80 7f 7f 7f 80 7f 80 80 7f 7f 80 80 80 7f 7f 7f     ................
     d64:	7f 80 80 80 7f 7f 80 7f 7f 7f 80 7f 80 80 80 7f     ................
     d74:	7f 7f 7f 7f 7f 7f 7f 7f 7f 80 80 80 80 80 80 7f     ................
     d84:	7f 7f 7f 7f 7f 7f 7f 80 80 80 80 80 7f 7f 7f 7f     ................
     d94:	7f 80 80 80 7f 7f 7f 7f 7f 7f 80 7f 7f 80 80 80     ................
     da4:	80 7f 7f 7f 7f 7f 7f 80 80 80 80 80 7f 7f 7f 7f     ................
     db4:	80 7f 7f 7f 80 7f 80 80 80 80 7f 80 80 80 7f 80     ................
     dc4:	80 7f 7f 80 7f 7f 80 80 7f 80 7f 7f 80 7f 7f 80     ................
     dd4:	7f 7f 7f 7f 7f 80 80 80 80 80 7f 7f 7f 7f 7f 7f     ................
     de4:	7f 7f 7f 7f 7f 7f 7f 7f 7f 7f 7f 80 80 80 80 7f     ................
     df4:	7f 7f 7f 7f 80 80 80 7f 7f 80 80 7f 7f 7f 7f 7f     ................
     e04:	7f 80 80 80 7f 7f 80 7f 7f 80 7f 7f 80 80 7f 80     ................
     e14:	80 80 7f 7f 7f 7f 7f 7f 7f 7f 80 80 80 80 80 80     ................
     e24:	80 7f 7f 7f 7f 7f 80 80 80 80 80 7f 7f 7f 7f 7f     ................
     e34:	7f 7f 80 7f 7f 80 7f 80 80 80 80 80 80 7f 80 80     ................
     e44:	7f 7f 7f 7f 7f 7f 80 7f 7f 7f 7f 7f 7f 80 7f 80     ................
     e54:	80 80 80 80 80 80 80 80 80 80 7f 80 7f 7f 7f 7f     ................
     e64:	7f 7f 7f 7f 7f 7f 80 80 80 7f 7f 7f 80 7f 80 80     ................
     e74:	7f 7f 7f 7f 7f 80 7f 7f 7f 7f 80 81 7f 7f 80 7f     ................
     e84:	7f 7f 82 7f 75 7f 8a 7f 7b 8e 8a 74 78 83 7e 76     ....u...{..tx.~v
     e94:	7d 86 7f 7c 82 7e 7c 81 84 82 7d 7d 80 7f 83 96     }..|.~|...}}....
     ea4:	88 71 7f 88 7c 75 83 88 81 7e 7f 7c 77 7f 7f 79     .q..|u...~.|w..y
     eb4:	7b 81 81 7d 84 83 7a 7a 82 7f 7f 83 82 81 81 82     {..}..zz........
     ec4:	80 7c 7e 80 7f 83 7e 82 74 73 8a 7c 71 7d 8a 7f     .|~...~.ts.|q}..
     ed4:	7c 85 7f 7c 83 87 7f 81 86 84 7e 7e 83 7c 7d 82     |..|......~~.|}.
     ee4:	81 7b 7c 81 82 89 82 7b 7a 78 7a 7c 78 7c 85 82     .{|....{zxz|x|..
     ef4:	80 84 83 80 83 8b 90 84 79 7e 7e 79 73 7a 82 7c     ........y~~ysz.|
     f04:	83 81 81 82 80 82 79 7d 7e 7c 7c 85 86 7f 7f 80     ......y}~||.....
     f14:	80 7f 84 83 82 82 84 7e 79 79 7c 74 70 82 7f 72     .......~yy|tp..r
     f24:	84 98 81 7c 86 83 7e 87 7c 78 80 77 79 7d 82 7f     ...|..~.|x.wy}..
     f34:	82 81 81 85 85 8c 87 85 82 7e 7a 6d 78 7c 79 7b     .........~zmx|y{
     f44:	85 82 7d 79 85 87 8b 8b 82 89 82 88 7b 87 85 70     ..}y........{..p
     f54:	6f 7b 70 6e 8a 7c 77 8b 84 80 95 8f 8e 88 7d 84     o{pn.|w.......}.
     f64:	73 7b 7f 6a 6e 7e 6e 6f 80 72 8d 90 81 99 95 88     s{.jn~no.r......
     f74:	96 8c 7a 80 75 6b 67 64 71 78 6c 80 81 74 90 90     ..z.ukgdqxl..t..
     f84:	89 a0 96 8d 96 80 7e 79 6b 6f 6d 60 75 7c 6a 88     ......~ykom`u|j.
     f94:	81 7f 98 8b 90 9d 8a 8e 90 78 80 79 6b 72 66 5b     .........x.ykrf[
     fa4:	79 6c 6e 97 82 8e a1 8b 9c 9a 82 8f 80 71 7d 6d     yln..........q}m
     fb4:	67 74 5c 6a 80 61 89 90 7f a9 9b 8e a7 87 7f 8a     gt\j.a..........
     fc4:	68 70 74 62 71 6c 60 88 75 78 a1 7f 94 a2 87 9d     hptbql`.ux......
     fd4:	93 75 88 72 63 7a 67 68 77 62 81 86 72 a0 8e 89     .u.rczghwb..r...
     fe4:	a8 89 8b 99 75 7c 7d 60 75 76 66 78 6f 75 8d 77     ....u|}`uvfxou.w
     ff4:	8e 98 81 9d 92 82 94 7d 71 81 6c 70 80 6d 74 7a     .......}q.lp.mtz
    1004:	6e 89 7e 7f 9b 81 90 98 80 8d 87 71 7e 75 69 81     n.~........q~ui.
    1014:	78 6f 7d 6f 7f 86 77 96 89 86 9a 86 86 8c 77 79     xo}o..w.......wy
    1024:	7c 6b 79 7d 6b 7b 73 76 8a 76 8e 90 82 98 8c 84     |ky}k{sv.v......
    1034:	8e 7c 74 7d 6f 74 82 71 75 78 72 8a 79 86 95 80     .|t}ot.quxr.y...
    1044:	94 91 82 8c 81 72 7c 73 6e 82 78 70 7b 73 84 7f     .....r|sn.xp{s..
    1054:	80 97 84 8e 93 82 87 85 74 78 78 6e 7e 7e 6e 7a     ........txxn~~nz
    1064:	75 7e 84 7b 93 88 8a 95 85 85 86 78 75 7a 70 79     u~.{.......xuzpy
    1074:	84 6f 76 78 7a 84 7c 90 8b 88 94 87 85 86 79 74     .ovxz.|.......yt
    1084:	7a 71 76 84 73 72 79 79 83 7e 8d 8e 88 95 8a 83     zqv.sryy.~......
    1094:	86 7b 73 79 73 73 84 76 6e 7a 7a 80 80 8d 8e 8a     .{syss.vnzz.....
    10a4:	95 8a 84 84 7b 72 78 74 74 84 78 6e 78 7b 7e 7f     ....{rxtt.xnx{~.
    10b4:	8e 8e 8a 96 8b 83 85 7a 71 78 73 72 83 7a 6e 77     .......zqxsr.znw
    10c4:	7e 7d 80 91 8d 8b 97 8b 83 85 78 6f 78 72 72 83     ~}........xoxrr.
    10d4:	78 6e 77 7e 7e 81 92 8d 8c 97 8b 83 84 79 6e 77     xnw~~........ynw
    10e4:	73 72 81 79 6e 76 81 7d 80 96 8c 8c 99 8b 83 86     sr.ynv.}........
    10f4:	78 6d 78 71 72 81 77 6e 76 82 7d 81 98 8c 8e 9a     xmxqr.wnv.}.....
    1104:	8b 83 86 77 6c 78 6f 73 7f 73 6e 76 83 7c 85 9a     ...wlxos.snv.|..
    1114:	8b 91 9a 89 83 86 72 6c 78 6d 75 7d 71 6d 79 85     ......rlxmu}qmy.
    1124:	7a 8c 91 85 99 98 84 8c 8b 6d 72 74 68 77 79 6e     z........mrthwyn
    1134:	6e 84 83 7d 97 93 8c 9b 93 81 8a 7e 6a 82 78 6a     n..}.......~j.xj
    1144:	78 73 65 6e 87 7a 87 a0 8c 93 9b 89 82 87 73 6d     xsen.z........sm
    1154:	75 6b 74 7a 74 69 79 83 74 95 99 8a 9c 98 85 88     uktztiy.t.......
    1164:	82 6a 73 72 6a 77 6d 60 6f 86 7b 86 9f 8e 93 9f     .jsrjwm`o.{.....
    1174:	8c 82 8c 77 6e 7c 6c 73 79 6e 66 77 80 76 96 9a     ...wn|lsynfw.v..
    1184:	8f 9d 99 85 88 85 6b 77 75 6d 79 72 65 6c 82 74     ......kwumyrel.t
    1194:	85 9d 8d 98 a2 93 86 8a 75 70 79 6b 74 75 6a 63     ........upyktujc
    11a4:	7a 7b 75 9b 93 8f a1 94 85 8e 81 6d 7e 70 6f 77     z{u........m~pow
    11b4:	6c 60 70 80 6e 8f 9b 8b 9e 9e 88 8a 8b 68 75 79     l`p.n........huy
    11c4:	6b 76 73 62 67 83 70 81 9f 8b 98 a2 8e 87 91 75     kvsbg.p........u
    11d4:	73 7f 6c 73 76 69 61 7e 78 72 9c 90 8d a3 95 85     s.lsvia~xr......
    11e4:	92 7f 6d 81 72 6e 77 6d 5d 74 80 6e 96 9a 86 9d     ..m.rnwm]t.n....
    11f4:	9e 83 8e 8d 6b 7e 7c 6a 73 73 5d 6a 85 6a 84 9d     ....k~|jss]j.j..
    1204:	87 95 a3 8a 86 95 72 75 84 6f 6f 78 64 5f 85 71     ......ru.ooxd_.q
    1214:	74 9e 8c 89 a1 8e 7f 98 7e 6f 86 77 6a 77 6d 5a     t.......~o.wjwmZ
    1224:	7e 7e 6c 95 96 84 9b 9f 7e 8f 8e 6e 80 83 6b 6f     ~~l.....~..n..ko
    1234:	76 59 6f 86 6b 87 9c 87 8f a3 87 84 96 77 75 85     vYo.k........wu.
    1244:	73 68 7a 68 64 83 74 79 95 8f 87 9e 95 80 91 86     shzhd.ty........
    1254:	73 7f 7e 66 70 6f 60 7b 7d 77 8b 93 88 90 99 87     s.~fpo`{}w......
    1264:	89 8d 7d 78 80 71 69 73 69 72 7e 78 7d 8d 8a 87     ..}x.qisir~x}...
    1274:	94 8d 86 8c 86 7c 7f 7c 6f 75 73 70 7c 7f 79 81     .....|.|ousp|.y.
    1284:	88 81 85 8f 89 84 8b 85 7d 7f 79 76 7b 7a 79 81     ........}.yv{zy.
    1294:	7f 79 7f 7f 7b 7f 85 84 83 87 86 82 80 7d 7d 81     .y..{........}}.
    12a4:	7e 7f 85 7f 7c 7d 78 76 7c 7d 7f 84 83 83 84 83     ~...|}xv|}......
    12b4:	81 80 80 7d 80 82 80 7f 80 7b 78 7b 79 7c 81 81     ...}.....{x{y|..
    12c4:	84 87 82 80 83 7f 7d 7e 7d 7f 81 80 7e 80 7e 7b     ......}~}...~.~{
    12d4:	7c 7d 7f 81 85 85 85 84 80 80 7d 7a 7c 7d 7e 81     |}........}z|}~.
    12e4:	84 81 82 82 7d 7c 7d 7e 7f 83 82 82 82 7d 7c 7d     ....}|}~.....}|}
    12f4:	7b 7e 80 81 84 87 85 82 80 7c 7b 7b 7d 7d 80 82     {~.......|{{}}..
    1304:	7e 7f 7f 7b 7c 7f 7e 83 87 85 88 85 80 7f 7c 78     ~..{|.~.......|x
    1314:	79 7a 7a 7d 7f 80 7f 7f 80 7d 80 84 85 88 88 84     yzz}.....}......
    1324:	83 81 7a 79 76 74 7a 7b 7d 82 83 82 83 83 82 83     ..zyvtz{}.......
    1334:	85 86 84 85 83 7e 7d 78 74 76 77 79 7f 81 82 87     .....~}xtvwy....
    1344:	86 85 86 83 83 82 82 83 82 7f 7b 78 77 76 76 7b     ..........{xwvv{
    1354:	7c 81 87 87 86 88 85 82 82 7e 7f 80 7e 7e 7e 7b     |........~..~~~{
    1364:	79 78 79 7a 7e 82 85 86 89 86 83 83 7f 7d 7e 7b     yxyz~........}~{
    1374:	7b 7e 7c 7d 7e 7c 7c 7e 80 81 84 86 85 85 84 80     {~|}~||~........
    1384:	7e 7d 7a 7a 7d 7c 7e 81 81 82 82 80 7f 81 80 81     ~}zz}|~.........
    1394:	83 82 80 7f 7e 7b 7a 7b 7b 7d 81 83 85 87 85 82     ....~{z{{}......
    13a4:	81 7d 7d 7e 7e 7e 7e 7e 7c 7b 7c 7c 7c 80 83 85     .}}~~~~~|{|||...
    13b4:	88 87 85 84 7f 7d 7c 7a 7a 7c 7c 7c 7d 7d 7e 7f     .....}|zz|||}}~.
    13c4:	81 83 84 87 86 85 85 81 7e 7d 79 78 79 78 79 7d     ........~}yxyxy}
    13d4:	7d 80 82 82 85 85 85 85 85 84 83 81 7f 7c 79 78     }............|yx
    13e4:	6f 64 6b 7e 8c 90 91 90 87 7b 7a 7e 83 89 88 84     odk~.....{z~....
    13f4:	81 7c 76 72 72 79 81 82 7d 7b 7f 8f a8 a4 80 61     .|vrry..}{.....a
    1404:	62 7d 95 96 81 6b 6a 76 80 82 79 74 7a 84 8b 89     b}...kjv..ytz...
    1414:	83 83 87 85 82 7a 75 7a 80 83 7f 7f 7b 74 78 7e     .....zuz....{tx~
    1424:	80 81 87 83 7c 72 73 84 8e 8f 83 71 6e 7c 84 87     ....|rs....qn|..
    1434:	84 75 72 7c 84 86 88 8a 85 84 85 89 88 83 80 77     .ur|...........w
    1444:	70 6e 7a 7b 78 7f 81 84 84 8d 8e 8a 89 8d 8b 7e     pnz{x..........~
    1454:	7b 71 6f 6f 7e 7c 64 6a 80 94 92 9a 99 88 83 8f     {qoo~|dj........
    1464:	8f 79 73 68 5d 56 6f 7e 71 80 92 94 88 9b a5 92     .ysh]Vo~q.......
    1474:	83 88 82 69 6e 6d 5f 54 71 7f 73 84 95 92 8a ab     ...inm_Tq.s.....
    1484:	a9 86 76 75 74 6e 80 75 5f 55 71 7e 78 96 ac a0     ..vutn.u_Uq~x...
    1494:	89 9b 93 79 7b 80 75 67 7b 75 66 66 79 83 70 88     ...y{.ug{uffy.p.
    14a4:	9f 9d 90 99 98 74 71 7b 7a 71 8a 8c 69 5f 61 77     .....tq{zq..i_aw
    14b4:	79 8c a6 a0 8d 88 91 77 74 7b 7b 73 7c 8a 6f 6c     y......wt{{s|.ol
    14c4:	6f 77 76 79 91 9d 9c 91 95 7d 6b 70 76 7c 84 94     owvy.....}kpv|..
    14d4:	7b 66 63 62 6b 79 95 a5 a6 93 87 7b 6b 72 79 80     {fcbky.....{kry.
    14e4:	85 90 85 6d 6e 67 6f 7a 85 96 a7 a4 90 84 6a 5d     ...mngoz......j]
    14f4:	67 7b 8e 9d 9b 78 64 5b 5e 77 89 97 a7 a6 89 7d     g{...xd[^w.....}
    1504:	76 68 6e 7c 83 8d 9b 87 70 6a 58 62 7f 8f a2 b2     vhn|....pjXb....
    1514:	9e 7d 6d 5a 5a 70 8f a4 a8 97 66 59 56 4e 84 a0     .}mZZp....fYVN..
    1524:	9b ad a3 7c 64 60 60 68 89 a3 a6 9a 78 5c 5b 46     ...|d``h....x\[F
    1534:	63 a7 a3 a8 b5 8d 58 51 5c 66 84 b1 c1 9c 7d 58     c.....XQ\f....}X
    1544:	4b 48 50 ab c4 a4 a2 8f 59 3d 64 76 83 a8 c3 a0     KHP.....Y=dv....
    1554:	6f 64 55 51 45 8f d5 ae 9d 98 69 29 4f 81 8c a6     odUQE.....i)O...
    1564:	be aa 62 5f 5b 58 5a 82 d4 b1 81 84 6c 3e 55 92     ..b_[XZ.....l>U.
    1574:	9c 97 a2 9d 67 5d 72 69 5f 78 be b0 7d 7f 7a 53     ....g]ri_x..}.zS
    1584:	4d 89 a0 91 94 9a 76 5d 73 74 69 70 a6 b7 81 76     M.....v]stip...v
    1594:	7d 69 57 7c a3 92 84 8a 83 68 75 81 73 64 80 b3     }iW|.....hu.sd..
    15a4:	94 77 87 7e 5e 63 91 96 85 88 8f 75 69 7b 78 69     .w.~^c.....ui{xi
    15b4:	72 ab ab 78 78 82 6b 5c 87 9f 87 7d 87 7f 6d 78     r..xx.k\...}..mx
    15c4:	81 6f 60 8e b6 8d 79 85 77 5a 6b 99 97 80 85 88     .o`...y.wZk.....
    15d4:	6f 6e 7f 79 67 77 af a3 73 78 7e 69 65 8c 9f 87     on.ygw..sx~ie...
    15e4:	78 81 7c 6f 7e 85 6f 64 90 b0 8b 75 80 78 61 71     x.|o~.od...u.xaq
    15f4:	9b 98 80 7a 7f 74 73 84 80 68 71 a7 a3 78 74 7e     ...z.ts..hq..xt~
    1604:	71 65 87 a3 8c 72 7b 80 76 7f 89 77 60 7c ac 96     qe...r{.v..w`|..
    1614:	72 7a 7e 69 6a 94 a0 81 71 7d 7e 78 88 8a 6f 5f     rz~ij...q}~x..o_
    1624:	80 a8 8f 72 7f 80 68 71 99 97 79 74 7e 82 7e 8b     ...r..hq..yt~.~.
    1634:	86 68 58 7e ad 94 75 7f 7e 67 73 98 95 7b 74 7a     .hX~..u.~gs..{tz
    1644:	85 84 8b 88 67 54 75 ab 9d 7c 7c 7b 6b 6f 8d 97     ....gTu..||{ko..
    1654:	83 75 78 88 85 86 89 69 55 6d a3 a9 86 76 75 72     .ux....iUm...vur
    1664:	6c 83 9a 8b 75 75 84 89 87 88 71 5e 60 8b b1 99     l...uu....q^`...
    1674:	72 6d 78 70 7a 96 98 7c 6e 79 8b 8a 86 80 69 5e     rmxpz..|ny....i^
    1684:	6d a1 ac 80 6b 74 79 74 84 9a 8c 71 71 87 8c 87     m...ktyt...qq...
    1694:	89 76 65 61 7d a8 9c 73 6c 7e 7c 79 89 93 7d 70     .vea}..sl~|y..}p
    16a4:	7c 8d 8f 83 74 64 60 60 94 bf 9b 73 71 79 6e 6f     |...td``...sqyno
    16b4:	8c 9d 85 77 86 8c 7d 78 7a 76 68 6b 9c a5 79 71     ...w..}xzvhk..yq
    16c4:	92 97 75 68 80 7e 72 87 9b 91 7c 72 6c 6c 61 7b     ..uh.~r...|rlla{
    16d4:	b4 a3 6a 62 80 89 7f 8a 95 79 60 70 8e 96 8a 83     ..jb.....y`p....
    16e4:	7a 63 4d 7c b8 a1 6f 6b 7f 76 69 88 a1 83 6e 7a     zcM|..ok.vi...nz
    16f4:	83 80 84 8e 86 68 56 85 ad 89 68 81 97 7f 6b 7e     .....hV...h...k~
    1704:	8a 7b 78 86 8f 83 7c 81 7c 63 65 9d a9 77 64 88     .{x...|.|ce..wd.
    1714:	96 7a 70 87 86 6e 7c 92 94 82 7b 7a 69 5d 7b ae     .zp..n|...{zi]{.
    1724:	a3 6e 65 82 87 78 7b 8c 83 6e 76 8b 96 8d 82 7e     .ne..x{..nv....~
    1734:	61 4f 80 b2 94 66 76 8d 7c 6f 82 8f 7e 6e 7c 8c     aO...fv.|o..~n|.
    1744:	8a 87 84 79 5c 64 98 a1 78 69 89 8f 78 73 82 89     ...y\d..xi..xs..
    1754:	7e 7e 8d 96 8b 7b 74 68 59 7e ab 91 66 70 8a 88     ~~...{thY~..fp..
    1764:	7a 7f 8b 82 75 80 94 92 81 77 6e 58 6b a5 a9 79     z...u....wnXk..y
    1774:	68 7e 89 7d 7b 8c 88 77 77 85 8f 89 7c 73 60 5e     h~.}{..ww...|s`^
    1784:	8e a9 86 69 7b 90 84 72 7f 8a 81 7b 86 90 89 77     ...i{..r...{...w
    1794:	72 69 5b 81 a9 8e 64 70 8e 8a 7a 82 8b 80 78 81     ri[...dp..z...x.
    17a4:	8d 8b 7e 73 68 59 7a a9 9a 70 71 89 89 7c 80 8b     ..~shYz..pq..|..
    17b4:	84 7b 7b 85 88 7f 76 6f 60 79 a4 9c 71 6c 86 8c     .{{...vo`y..ql..
    17c4:	7a 7a 89 85 7e 80 88 87 7a 76 73 63 7b a5 9a 6e     zz..~...zvsc{..n
    17d4:	67 85 8d 7a 79 8a 83 7a 7e 8a 89 7e 79 75 63 79     g..zy..z~..~yucy
    17e4:	a3 94 6c 68 85 8f 7c 77 89 86 7a 7e 88 88 7b 77     ..lh..|w..z~..{w
    17f4:	78 68 7e 9e 8d 67 68 88 93 81 77 88 87 7a 7c 8a     xh~..gh...w..z|.
    1804:	8d 7b 75 75 6c 83 9a 88 66 6b 8c 95 81 78 86 84     .{uul...fk...x..
    1814:	7b 7e 8c 8b 77 73 71 6e 8b 9a 82 64 72 93 93 7d     {~..wsqn...dr..}
    1824:	77 82 80 7c 83 8f 88 73 71 6d 70 93 9b 7d 61 79     w..|...sqmp..}ay
    1834:	96 90 79 76 82 7e 7d 88 93 84 6d 6f 6a 73 9a 9f     ..yv.~}...mojs..
    1844:	7a 61 7b 93 8a 74 77 83 81 7f 8c 94 7f 69 6a 68     za{..tw......ijh
    1854:	7c a2 9e 77 64 7d 90 86 75 7b 85 81 81 8e 91 7b     |..wd}..u{.....{
    1864:	68 68 68 86 a7 98 73 66 7f 8b 82 79 7f 84 80 80     hhh...sf...y....
    1874:	8c 8c 7b 6d 67 67 8f a9 92 6e 67 83 89 7f 7d 80     ..{mgg...ng...}.
    1884:	82 81 81 8b 89 78 6f 67 6a 96 a5 8c 6c 67 85 8b     .....xogj...lg..
    1894:	7f 7b 7e 81 84 81 8c 8b 74 6d 69 6f 98 a0 8a 6e     .{~.....tmio...n
    18a4:	69 85 8f 80 77 7a 7f 85 83 8f 8c 6f 69 6a 77 9c     i...wz.....oijw.
    18b4:	9d 87 6d 6c 85 8e 7f 77 7b 7b 83 88 92 89 6e 6a     ..ml...w{{....nj
    18c4:	6a 7b a1 9c 80 6a 70 86 8a 7e 7a 7e 79 7d 8a 95     j{...jp..~z~y}..
    18d4:	86 6d 6c 6d 7e a2 9a 7b 65 71 8a 8b 7c 78 81 7e     .mlm~..{eq..|x.~
    18e4:	7a 87 97 86 6c 6d 6f 80 a3 97 78 64 72 89 8a 7f     z...lmo...xdr...
    18f4:	78 7e 7d 7e 86 95 89 6e 6d 6e 80 a3 94 74 67 77     x~}~...nmn...tgw
    1904:	89 88 7f 7a 7c 7d 82 89 91 85 71 70 6c 7c a4 97     ...z|}....qpl|..
    1914:	6d 5f 7c 98 8d 75 73 7f 81 81 8a 94 82 6f 73 6e     m_|..us......osn
    1924:	74 9f 9d 6e 57 78 a2 95 71 6d 83 86 7f 85 92 88     t..nWx..qm......
    1934:	73 72 6d 6a 97 a7 7a 56 6d 9d 99 79 6f 81 85 7f     srmj..zVm..yo...
    1944:	81 8e 8d 77 72 71 64 84 ad 8e 5b 5d 90 a0 86 6f     ...wrqd...[]...o
    1954:	7a 88 82 7d 89 8f 7a 71 78 6b 6d a1 a3 6f 53 78     z..}..zqxkm..oSx
    1964:	a4 96 71 71 84 74 75 8e 90 7d 7f 8b 77 56 7a ae     ..qq.tu..}..wVz.
    1974:	90 59 5e 9c af 82 60 77 8e 89 7f 80 85 7d 77 82     .Y^...`w.....}w.
    1984:	86 6c 82 9a 82 62 71 9d 9d 77 6b 81 87 81 7f 86     .l...bq..wk.....
    1994:	83 75 75 77 5e 6e aa a1 6d 5c 8e a7 7f 61 75 90     .uuw^n..m\...au.
    19a4:	89 80 7d 89 82 78 79 73 57 6a ab aa 72 5b 8b 9f     ..}..xysWj..r[..
    19b4:	7a 5e 7b 96 8b 7c 7c 88 7f 79 7b 74 60 88 b3 95     z^{..||..y{t`...
    19c4:	65 68 9a 97 6f 68 8a 8e 7e 78 82 8f 82 79 7b 71     eh..oh..~x...y{q
    19d4:	5a 83 b1 8d 5d 6e 9e 9c 78 68 83 8e 7c 75 89 8f     Z...]n..xh..|u..
    19e4:	80 7c 7b 6d 56 80 b0 93 62 6c 99 92 75 6f 7e 80     .|{mV...bl..uo~.
    19f4:	77 7c 8b 8d 80 7e 7f 73 54 79 bc a0 61 60 91 97     w|...~.sTy..a`..
    1a04:	69 5f 8b 8e 74 7b 8f 8d 7b 86 82 6d 58 70 b2 a5     i_..t{..{..mXp..
    1a14:	67 5d 92 9f 76 69 86 94 7b 73 83 95 86 79 82 75     g]..vi..{s...y.u
    1a24:	59 5f a2 ad 75 62 86 a3 80 69 7d 91 6f 6c 97 96     Y_..ub...i}.ol..
    1a34:	85 7c 8b 7c 67 5a 75 b0 96 68 69 94 97 72 69 78     .|.|gZu..hi..rix
    1a44:	83 6f 7f 9b 9c 88 84 7e 70 6b 5a 7a ab 93 65 74     .o.....~pkZz..et
    1a54:	95 8b 6e 6b 89 88 6a 78 97 9c 7f 7f 8a 71 65 63     ..nk..jx.....qec
    1a64:	6e 9d a0 75 70 8f 8b 69 71 8b 8e 73 77 94 9c 8f     n..up..iq..sw...
    1a74:	84 84 79 65 5e 66 85 a3 85 72 80 8f 74 6c 91 91     ..ye^f...r..tl..
    1a84:	79 71 8c 9b 93 86 87 76 67 65 5c 66 9c 9a 79 83     yq.....vge\f..y.
    1a94:	8e 8b 71 82 94 81 65 7b 94 8b 8c 86 7d 6b 61 67     ..q...e{....}kag
    1aa4:	65 72 a7 9c 86 8e 8b 7c 75 81 7c 73 6b 8d 93 81     er.....|u.|sk...
    1ab4:	89 7e 6c 72 71 63 63 8f bd 97 79 8a 90 69 69 87     .~lrqcc...y..ii.
    1ac4:	80 74 71 89 8d 80 8c 8b 72 72 70 68 70 9d ac 88     .tq.....rrphp...
    1ad4:	82 8a 83 5d 72 89 67 63 85 95 8b 90 9c 85 6b 74     ...]r.gc......kt
    1ae4:	72 62 72 aa 9e 80 86 89 6e 50 78 8a 69 75 9c 93     rbr.....nPx.iu..
    1af4:	8a 97 92 75 70 76 6e 63 73 a2 90 81 88 7b 6b 6a     ...upvncs....{kj
    1b04:	82 83 74 85 99 85 87 98 8b 78 76 6d 63 57 77 a6     ..t......xvmcWw.
    1b14:	8c 88 93 7d 6d 73 86 80 75 86 93 89 90 9b 7c 6e     ...}ms..u.....|n
    1b24:	73 65 5c 60 8f a4 84 91 99 7a 6e 7c 7f 73 7b 8f     se\`.....zn|.s{.
    1b34:	88 82 91 8e 74 7b 79 5a 58 71 98 97 8e a5 91 6c     ....t{yZXq.....l
    1b44:	72 83 74 70 80 80 7c 8b 9d 89 77 7e 67 56 6b 80     r.tp..|...w~gVk.
    1b54:	93 94 9c 9f 82 72 7b 71 65 74 80 80 88 95 8c 7d     .....r{qet.....}
    1b64:	83 85 6b 62 6e 79 8d 97 9e 95 79 73 7b 6e 6a 7c     ..kbny....ys{nj|
    1b74:	7c 78 89 9a 98 8f 8d 79 5e 5b 65 81 94 95 99 92     |x.....y^[e.....
    1b84:	7d 79 73 63 6b 7c 7f 89 9f 9e 8c 87 80 6a 62 63     }ysck|.......jbc
    1b94:	6a 86 90 8f 99 8b 79 7b 75 6f 78 7f 7b 87 98 8e     j.....y{uox.{...
    1ba4:	8b 96 83 65 5e 5a 6a 85 8b 97 9c 8b 87 83 6f 6a     ...e^Zj.......oj
    1bb4:	75 78 79 8d 9b 95 93 89 72 61 56 5b 7b 89 8e a2     uxy.....raV[{...
    1bc4:	9a 89 86 78 6d 73 73 76 85 92 8e 90 96 7f 6a 61     ...xmssv......ja
    1bd4:	57 67 83 85 9a a6 8f 8f 88 6b 6c 75 70 78 89 8d     Wg.......klupx..
    1be4:	8f 97 8b 76 6d 61 5a 78 82 88 a7 9b 89 8e 7c 6b     ...vmaZx......|k
    1bf4:	78 74 68 7a 89 89 90 97 88 79 6e 5a 6a 7d 7a 93     xthz.....ynZj}z.
    1c04:	9e 8e 93 8e 75 70 6d 67 70 7e 8a 92 9a 95 84 78     ....upmgp~.....x
    1c14:	63 5c 71 75 86 9d 93 96 92 76 70 69 60 75 7b 80     c\qu.....vpi`u{.
    1c24:	99 a0 9b 8d 76 67 62 6d 71 7d 98 92 8f 93 7b 74     ....vgbmq}....{t
    1c34:	82 71 6d 7b 7e 8b 97 9a 90 86 75 62 6e 69 6b 8b     .qm{~.....ubnik.
    1c44:	8c 84 94 93 7f 85 78 6c 76 72 80 93 96 92 8b 7c     ......xlvr.....|
    1c54:	63 63 6c 68 78 8b 8d 98 9d 87 83 7d 6b 72 79 7c     cclhx......}kry|
    1c64:	80 8a 8f 84 7e 72 68 70 69 71 90 93 90 96 8f 89     ....~rhpiq......
    1c74:	83 76 77 75 71 7d 84 89 8a 84 81 6f 6d 74 73 82     .vwuq}.....omts.
    1c84:	89 8b 97 96 8d 85 7a 71 6e 69 74 82 89 94 91 88     ......zqnit.....
    1c94:	79 6b 71 70 75 86 90 95 92 89 84 7d 6c 6a 6d 76     ykqpu......}ljmv
    1ca4:	83 8b 96 8f 81 7b 75 72 71 73 85 8b 82 8e 91 82     .....{urqs......
    1cb4:	7b 74 77 78 72 7c 84 85 8c 8c 8a 80 6d 74 70 6d     {twxr|......mtpm
    1cc4:	80 84 8d 93 86 85 8b 7a 72 74 73 81 8c 98 95 88     .......zrts.....
    1cd4:	7e 68 6a 6c 68 80 8b 84 8e 95 8a 89 7d 73 7a 7a     ~hjlh.......}szz
    1ce4:	7e 84 8d 89 82 84 75 6d 76 70 71 82 80 8b 97 8f     ~.....umvpq.....
    1cf4:	8b 8c 7f 77 79 70 71 7d 87 88 89 85 75 74 6c 64     ...wypq}....utld
    1d04:	7e 88 89 99 9a 8b 8c 83 6f 72 6a 6a 7e 87 85 89     ~.......orjj~...
    1d14:	89 77 6e 74 73 7f 8e 82 8a 99 87 83 88 76 6f 76     .wnts........vov
    1d24:	72 79 81 85 8d 89 81 80 86 7a 6a 7e 81 77 8a 8e     ry.......zj~.w..
    1d34:	83 89 86 7a 7b 71 6c 7e 83 88 97 99 88 7a 73 65     ...z{ql~.....zse
    1d44:	69 7d 79 7f 94 8b 85 8a 80 76 78 76 7f 8d 85 8a     i}y......vxv....
    1d54:	8f 7f 6d 71 77 6b 76 83 7d 83 8a 87 8c 8e 85 86     ..mqwkv.}.......
    1d64:	83 76 74 7b 7a 79 81 81 7c 7b 76 6f 77 7e 7f 8e     .vt{zy..|{vow~..
    1d74:	97 93 8f 89 80 72 6f 74 77 7a 87 8b 87 81 7a 75     .....rotwz....zu
    1d84:	75 7e 82 84 86 83 82 80 7e 7c 7f 80 7b 7c 81 86     u~......~|..{|..
    1d94:	86 83 84 88 85 7c 7a 78 72 71 78 7f 81 89 8d 83     .....|zxrqx.....
    1da4:	7b 7c 7f 80 80 87 8d 8a 86 81 76 6f 70 74 78 7c     {|........voptx|
    1db4:	82 88 87 83 7e 7f 86 82 7e 82 86 85 80 7f 7f 7c     ....~...~......|
    1dc4:	78 7b 7d 78 76 7a 7f 7e 81 8c 8a 83 7f 80 80 7e     x{}xvz.~.......~
    1dd4:	80 84 85 85 85 82 7a 76 76 74 75 7c 82 86 88 84     ......zvvtu|....
    1de4:	80 7f 7f 7e 7f 82 86 85 81 83 86 7f 77 79 7b 77     ...~........wy{w
    1df4:	7b 80 7e 7c 7e 81 84 84 83 82 80 7f 7c 7f 84 87     {.~|~.......|...
    1e04:	84 82 81 7e 7a 76 75 75 77 80 88 8a 83 7e 80 7d     ...~zvuuw....~.}
    1e14:	7a 7f 84 84 84 89 88 84 7f 77 75 74 75 7d 80 7e     z........wutu}.~
    1e24:	7e 81 81 83 84 84 80 7f 7f 83 88 88 86 83 7c 77     ~.............|w
    1e34:	78 76 75 78 78 7d 85 89 88 84 7f 7c 7d 7f 83 88     xvuxx}.....|}...
    1e44:	8a 88 86 80 78 77 79 77 75 7a 80 81 80 80 83 80     ....xwywuz......
    1e54:	7f 83 80 7f 82 87 86 85 86 84 80 76 74 79 7a 78     ...........vtyzx
    1e64:	7a 7d 81 85 86 81 7d 7f 7f 80 84 87 8a 8b 85 7c     z}....}........|
    1e74:	77 77 79 7a 77 7b 80 7f 7e 7f 7f 80 86 86 81 83     wwyzw{..~.......
    1e84:	89 89 81 7d 82 82 7d 7a 7b 7c 78 78 78 78 80 87     ...}..}z{|xxxx..
    1e94:	87 83 83 82 82 82 80 81 84 88 87 80 79 7a 79 72     ............yzyr
    1ea4:	74 7e 80 81 82 83 81 80 83 84 7f 81 86 87 85 84     t~..............
    1eb4:	82 7b 78 7a 7a 79 7d 7e 78 79 7f 85 86 84 86 85     .{xzzy}~xy......
    1ec4:	82 81 80 81 82 84 82 7f 7d 79 78 76 74 75 7d 88     ........}yxvtu}.
    1ed4:	87 81 83 8a 88 7e 7c 80 81 81 85 87 80 7a 77 77     .....~|......zww
    1ee4:	6a 61 76 8b 89 83 8e 99 8c 78 75 7a 81 86 86 83     jav......xuz....
    1ef4:	87 84 79 6f 76 84 83 7a 71 73 85 a0 b1 90 69 63     ..yov..zqs....ic
    1f04:	74 8f 94 7c 6b 7d 8d 87 79 68 6d 76 85 8f 7d 7c     t..|k}..yhmv..}|
    1f14:	85 91 96 87 71 69 7a 82 85 81 7c 84 82 7a 70 73     ....qiz...|..zps
    1f24:	71 75 8d 87 76 74 7e 90 9f 91 72 6a 6b 80 91 8a     qu..vt~...rjk...
    1f34:	80 7c 7c 79 7d 73 69 7f 86 86 95 93 88 92 8d 78     .||y}si........x
    1f44:	73 6b 76 84 84 8c 89 79 6a 75 76 6e 84 8b 8a 92     skv....yjuvn....
    1f54:	8c 88 94 8b 7e 7a 60 64 81 8f 98 87 79 72 72 77     ....~z`d....yrrw
    1f64:	72 7f 7e 81 92 92 84 85 7d 74 81 6d 75 88 89 95     r.~.....}t.mu...
    1f74:	8b 83 77 6a 63 6b 7a 77 85 98 94 7d 7d 81 7b 89     ..wjckzw...}}.{.
    1f84:	81 7e 7f 7b 8f 8d 7f 71 62 64 69 7b 88 8e 98 91     .~.{...qbdi{....
    1f94:	8b 97 96 7c 77 74 70 77 75 8f 8c 79 79 6e 6d 68     ...|wtpwu..yynmh
    1fa4:	7e 8c 84 95 a2 94 88 84 70 72 72 77 85 73 84 92     ~.......prrw.s..
    1fb4:	84 7e 74 6f 63 75 8e 90 94 98 88 7c 7e 6d 76 74     .~tocu.....|~mvt
    1fc4:	70 8a 83 89 93 82 72 71 7b 6d 74 89 88 87 8c 87     p.....rq{mt.....
    1fd4:	85 89 6c 6f 75 68 89 91 89 8e 83 7b 77 7c 71 6b     ..louh.....{w|qk
    1fe4:	7c 79 81 9a 98 8c 93 77 69 7a 69 80 96 8a 96 8e     |y.....wizi.....
    1ff4:	79 6a 6c 66 5f 80 8b 8f a0 9d 83 84 79 5d 79 77     yjlf_.......y]yw
    2004:	81 a2 93 93 85 66 54 6a 7f 6e 85 95 8a 8e 95 80     .....fTj.n......
    2014:	7e 8b 6e 7c 7e 6a 8a 8d 84 83 7d 6f 69 7b 6f 75     ~.n|~j....}oi{ou
    2024:	8e 86 86 9d 9a 85 96 76 5d 6c 57 6e 92 9d a1 8e     .......v]lWn....
    2034:	76 57 5f 69 6a 93 a3 9a a5 a2 72 74 79 54 69 7c     vW_ij.....rtyTi|
    2044:	87 9c 9b 96 80 67 5a 5e 7c 7e 92 b1 8f 73 8a 80     .....gZ^|~...s..
    2054:	6b 84 82 78 79 74 81 83 8f 9e 8b 77 5e 71 7d 5e     k..xyt.....w^q}^
    2064:	7d 9a 88 8a a7 8f 77 77 61 63 65 86 a2 a2 a5 8f     }.....wwace.....
    2074:	78 4b 3f 6d 77 80 a9 ae 8d 89 80 69 6d 72 7a 7e     xK?mw......imrz~
    2084:	7f 91 96 87 7f 7d 70 5c 66 7f 75 82 a3 96 85 90     .....}p\f.u.....
    2094:	88 73 76 75 7b 73 73 90 96 98 90 7f 6a 4c 5a 79     .svu{ss.....jLZy
    20a4:	7d 95 b0 9a 8c 8e 78 6d 67 6a 76 79 8d 9c 9e 99     }.....xmgjvy....
    20b4:	83 6b 5b 4b 67 8a 87 a5 b2 90 7b 76 6e 6b 73 7a     .k[Kg.....{vnksz
    20c4:	7f 81 8b 8f 93 95 7e 6b 5d 54 75 90 88 96 9f 88     ......~k]Tu.....
    20d4:	81 83 74 6f 73 72 74 83 93 91 95 93 80 6c 5d 4f     ..tosrt......l]O
    20e4:	68 89 8e aa aa 8b 81 76 61 67 79 7d 7f 8a 99 96     h......vagy}....
    20f4:	98 8f 6e 57 57 5c 7a 95 97 a8 9d 7b 79 7a 6a 68     ..nWW\z....{yzjh
    2104:	75 80 85 91 98 87 8b 8f 7a 61 59 59 72 96 97 a4     u.......zaYYr...
    2114:	a7 83 6e 6d 6b 71 7e 7d 7a 8a 9d 92 8e 8e 76 5a     ..nmkq~}z.....vZ
    2124:	56 5e 71 a0 9f 98 9e 83 71 74 6b 62 75 88 8c 8b     V^q.....qtkbu...
    2134:	98 8f 82 85 7c 70 5e 5c 68 95 a4 9a a5 88 61 64     ....|p^\h.....ad
    2144:	76 75 77 87 8d 83 8c 94 8c 83 77 77 66 61 6d 8c     vuw.......wwfam.
    2154:	a2 8a 8a 95 7e 65 71 7b 72 78 8b 92 8a 88 89 86     ....~eq{rx......
    2164:	7f 7f 7c 65 5a 67 97 a8 89 90 8d 68 60 79 88 7b     ..|eZg.....h`y.{
    2174:	77 87 8e 8c 8e 90 85 6e 6e 77 6e 67 75 a0 9b 7c     w......nnwngu..|
    2184:	8a 88 72 67 78 83 77 7f 93 97 81 7d 88 84 77 77     ..rgx.w....}..ww
    2194:	7b 6c 5f 70 a5 a0 80 81 75 60 5d 86 99 90 8a 91     {l_p....u`].....
    21a4:	91 74 67 77 8f 8b 89 8b 6f 57 53 88 aa 96 99 92     .tgw....oWS.....
    21b4:	77 4c 58 93 a5 97 8b 88 70 63 75 96 9c 84 7b 6b     wLX.....pcu...{k
    21c4:	56 53 7d c1 b6 7e 68 68 63 63 8c a8 98 72 70 83     VS}..~hhcc...rp.
    21d4:	7c 7b 8a 93 80 72 7c 81 76 62 71 a5 8a 5a 68 89     |{...r|.vbq..Zh.
    21e4:	8c 7d 8e 90 79 61 76 97 97 89 85 8b 7b 69 77 91     .}..yav.....{iw.
    21f4:	85 64 5b 8e 95 78 86 9c 8f 65 69 80 84 77 85 a3     .d[..x...ei..w..
    2204:	90 68 69 8d 96 85 80 81 69 54 5d 9b bd 96 78 72     .hi.....iT]...xr
    2214:	7a 6e 72 8e 91 74 6a 89 96 85 76 82 8a 7e 73 7f     znr..tj...v..~s.
    2224:	80 6f 5f 71 a7 a1 83 7b 83 7a 64 6d 83 89 7b 84     .o_q...{.zdm..{.
    2234:	93 91 78 66 6f 83 8a 8a 91 7d 65 51 76 ac a4 86     ..xfo....}eQv...
    2244:	76 7b 6d 63 77 99 92 7c 77 81 89 7d 83 97 a0 7e     v{mcw..|w..}...~
    2254:	68 6d 6b 65 6a a2 b4 8c 66 71 84 74 6a 77 8b 83     hmkej...fq.tjw..
    2264:	81 96 a5 8f 6b 67 7c 89 86 89 7d 67 52 69 a2 ad     ....kg|...}gRi..
    2274:	8f 72 73 72 6f 78 89 93 91 86 78 7d 7d 73 77 8f     .rsrox....x}}sw.
    2284:	9a 89 74 67 63 60 82 b1 ad 76 50 64 7f 84 85 91     ..tgc`...vPd....
    2294:	8d 78 6c 7a 91 93 82 7a 8a 8d 83 7c 6d 58 56 89     .xlz...z...|mXV.
    22a4:	b0 a1 7d 72 7a 79 70 75 8b 91 85 7b 81 8d 8e 80     ..}rzypu...{....
    22b4:	78 85 8c 7d 61 5a 61 78 aa bd 9c 6c 5b 68 78 82     x..}aZax...l[hx.
    22c4:	8c 99 91 71 64 80 98 8a 75 79 85 82 78 73 72 69     ...qd...uy..xsri
    22d4:	7d a2 a6 86 70 72 72 72 7a 89 8c 86 78 79 85 8a     }...prrrz...xy..
    22e4:	7e 72 7a 87 8b 7e 74 6e 6c 81 9c 9f 83 6b 6c 78     ~rz..~tnl....klx
    22f4:	7f 7e 86 90 86 71 73 87 91 87 87 8c 81 71 6c 71     .~...qs......qlq
    2304:	6b 75 9b aa 89 68 6c 7c 7f 77 7c 8a 8b 83 7f 85     ku...hl|.w|.....
    2314:	8d 8a 7d 77 7e 87 80 6f 64 69 8c a6 97 78 6e 73     ..}w~..odi...xns
    2324:	7d 77 71 82 98 91 79 78 83 86 7a 79 87 92 86 6e     }wq...yx..zy...n
    2334:	64 64 83 aa 9d 72 64 74 7a 76 7a 87 91 8a 79 77     dd...rdtzvz...yw
    2344:	82 88 82 81 8a 94 90 6f 56 57 7d a5 a2 7f 6d 77     .......oVW}...mw
    2354:	7f 7d 7c 7f 81 83 82 83 8c 91 7d 6e 7b 92 91 77     .}|.......}n{..w
    2364:	61 5a 6f 96 a7 94 76 71 7b 7f 79 7e 87 82 79 7b     aZo...vq{.y~..y{
    2374:	8c 92 82 73 7d 8c 8a 79 68 5a 6a 9a b2 98 75 6a     ...s}..yhZj...uj
    2384:	6e 73 75 83 8d 8a 81 7e 85 8b 80 74 7d 8b 8c 7b     nsu....~...t}..{
    2394:	6b 62 6f 92 a2 8c 70 6c 7b 84 7c 7d 87 87 7e 7c     kbo...pl{.|}..~|
    23a4:	87 90 83 74 80 8b 87 78 69 5d 71 9a a3 8a 71 74     ...t...xi]q...qt
    23b4:	81 82 76 79 8b 8c 7e 7e 86 87 78 73 86 94 89 74     ..vy..~~..xs...t
    23c4:	60 58 7f ab a8 7e 69 77 83 7f 76 77 81 87 7f 82     `X...~iw..vw....
    23d4:	8a 8a 7b 73 82 91 87 70 57 64 9b b2 97 70 65 74     ..{s...pWd...pet
    23e4:	7f 7c 7d 82 86 7d 77 87 95 8b 76 71 83 8e 82 6a     .|}..}w...vq...j
    23f4:	5f 7d a0 9c 7d 6e 75 83 7d 72 7e 8b 86 7c 80 8f     _}..}nu.}r~..|..
    2404:	8e 79 73 84 8a 7c 6f 5e 70 9b a5 83 6c 79 88 85     .ys..|o^p...ly..
    2414:	73 71 81 8a 80 84 96 8d 73 6a 7d 8f 85 6f 5c 6d     sq......sj}..o\m
    2424:	9a aa 8b 68 70 87 8b 77 77 89 83 6d 72 96 a2 81     ...hp..ww..mr...
    2434:	62 73 8e 8b 76 59 69 9f af 87 63 73 90 87 66 6f     bs..vYi...cs..fo
    2444:	90 90 70 70 93 a0 87 6c 72 86 86 6a 57 82 b1 aa     ..pp...lr..jW...
    2454:	76 52 70 93 8a 72 79 88 83 75 82 9a 93 72 68 82     vRp..ry..u...rh.
    2464:	8b 79 5d 6f 9e a6 85 68 75 78 69 6d 89 98 90 80     .y]o...huxim....
    2474:	7e 8f 90 76 66 7b 97 8e 57 52 9c bd 89 58 6e 93     ~..vf{..WR...Xn.
    2484:	8a 64 67 90 a6 97 7a 7a 88 86 7e 74 71 7d 79 6c     .dg...zz..~tq}yl
    2494:	85 9e 8f 6f 6a 84 88 6d 6b 8b 9a 7e 6e 8f a8 83     ...oj..mk..~n...
    24a4:	58 6c 92 8b 60 57 8f b7 95 61 62 86 8d 6e 62 84     Xl..`W...ab..nb.
    24b4:	9a 83 71 81 9b 93 70 6c 7d 87 71 5c 89 b7 98 62     ..q...pl}.q\...b
    24c4:	65 85 88 73 77 9e 9c 68 60 91 a9 82 60 7c 94 88     e..sw..h`...`|..
    24d4:	5f 52 92 b9 8c 59 6a 8f 8a 75 77 8e 93 77 6e 8f     _R...Yj..uw..wn.
    24e4:	9f 80 64 78 92 8b 5e 50 8e b5 8a 5d 73 9e 8f 5a     ..dx..^P...]s..Z
    24f4:	66 9a 94 65 6b 9d a4 79 62 81 90 7b 57 5e a0 b6     f..ek..yb..{W^..
    2504:	8b 6a 77 7d 6d 62 85 9f 7f 62 7d a6 96 70 68 89     .jw}mb...b}..ph.
    2514:	90 75 58 5e 9e bc 96 5e 66 8d 88 6c 78 9a 8b 6a     .uX^...^f..lx..j
    2524:	75 9f 97 69 61 89 92 74 63 6a 9b ac 84 6c 7d 8b     u..ia..tcj...l}.
    2534:	71 69 87 9e 81 65 80 a3 8f 64 68 89 91 7c 6c 69     qi...e...dh..|li
    2544:	7f 9f 9b 77 69 77 7d 7d 85 90 87 6b 73 96 94 76     ...wiw}}...ks..v
    2554:	6c 84 91 80 70 60 6c 9b a9 87 67 6c 78 7c 7d 8b     l...p`l...glx|}.
    2564:	8b 73 73 8b 99 80 72 84 91 83 6d 68 6c 82 9e 99     .ss...r...mhl...
    2574:	7b 6e 7b 83 7f 80 87 7f 76 7c 8e 8d 7a 7c 8e 8c     {n{.....v|..z|..
    2584:	6d 6e 7f 69 70 9f a6 77 63 84 97 7d 6d 83 85 71     mn.ip..wc..}m..q
    2594:	77 98 99 7b 73 7f 82 84 82 76 5a 69 9f a0 7c 72     w..{s....vZi..|r
    25a4:	86 81 6f 73 8b 8a 73 72 94 a3 85 66 72 8c 87 7f     ..os..sr...fr...
    25b4:	7a 6b 50 77 b2 9e 6e 6e 86 76 6c 87 9b 80 6e 8c     zkPw..nn.vl...n.
    25c4:	a2 7a 63 7c 91 85 7d 89 7e 59 55 97 b0 87 6d 7b     .zc|..}.~YU...m{
    25d4:	83 73 74 90 94 78 6d 7f 96 80 71 86 92 7e 79 88     .st..xm...q..~y.
    25e4:	82 5c 52 99 b0 7f 6e 88 87 68 6e 96 8f 68 75 92     .\R...n..hn..hu.
    25f4:	8f 79 7f 8f 86 78 82 86 6f 59 58 8f b1 8d 7b 8a     .y...x..oYX...{.
    2604:	82 64 63 89 93 77 7a 97 92 73 76 8e 85 6c 77 8e     .dc..wz..sv..lw.
    2614:	7c 63 61 81 aa 97 83 85 79 66 68 84 91 83 80 8d     |ca.....yfh.....
    2624:	8a 7c 79 82 7f 77 7b 8a 87 71 68 6f 9a 9c 7c 82     .|y..w{..qho..|.
    2634:	86 72 62 78 8f 85 7e 90 90 79 72 7d 82 7e 83 8c     .rbx..~..yr}.~..
    2644:	91 81 6f 58 6a a0 92 7d 86 85 6a 62 86 8f 81 86     ..oXj..}..jb....
    2654:	8d 7a 70 82 8c 84 83 8e 91 79 67 60 57 85 a4 8d     .zp......yg`W...
    2664:	86 8c 7f 5f 6b 8b 85 7e 8d 8a 77 7e 90 89 7d 83     ..._k..~..w~..}.
    2674:	8a 7c 6a 6c 61 6a 9e a5 8e 8c 86 68 55 73 89 81     .|jlaj.....hUs..
    2684:	8a 9a 8e 7e 81 80 77 78 84 85 78 75 71 66 8b a5     ...~..wx..xuqf..
    2694:	8a 82 88 74 57 66 8c 8d 8a 9f 94 74 72 79 76 78     ...tWf.....tryvx
    26a4:	8a 8f 82 7c 7a 61 69 97 8b 7c 8d 89 6c 68 8c 90     ...|zai..|..lh..
    26b4:	7b 8c 94 76 6f 7c 7c 7b 8d 94 84 7b 77 5c 54 8d     {..vo||{...{w\T.
    26c4:	99 80 97 a1 80 64 76 80 6a 7b 9b 84 78 89 86 79     .....dv.j{..x..y
    26d4:	81 8e 81 77 76 68 57 85 a2 8a 98 9e 7d 5f 69 75     ...wvhW.....}_iu
    26e4:	67 77 a1 97 85 92 88 71 72 80 7a 77 81 77 66 8c     gw.....qr.zw.wf.
    26f4:	9e 7d 8c 93 73 64 74 76 6c 80 a1 96 84 90 80 6c     .}..sdtvl......l
    2704:	70 7f 80 81 88 77 67 8b 94 6b 89 99 74 6a 7e 79     p....wg..k..tj~y
    2714:	6e 82 96 8f 8a 90 76 6d 7d 83 80 82 86 72 67 87     n.....vm}....rg.
    2724:	79 69 9b 94 71 80 93 77 67 7e 8a 80 89 97 7f 82     yi..q..wg~......
    2734:	89 77 76 7c 7a 66 73 98 82 7b 9d 96 78 79 80 61     .wv|zfs..{..xy.a
    2744:	6d 8c 80 83 9d 97 77 83 81 70 78 7a 6a 5e 8b 99     m.....w..pxzj^..
    2754:	7b 97 9f 6d 65 82 74 66 85 8e 82 91 a0 82 75 86     {..me.tf......u.
    2764:	70 68 7c 7c 5b 69 a2 85 7f a2 86 69 7b 83 6a 77     ph||[i.....i{.jw
    2774:	91 84 84 99 8e 78 86 7d 64 75 80 72 6a 98 9a 71     .....x.}du.rj..q
    2784:	93 96 71 79 87 6b 69 90 85 73 94 9c 7a 7b 89 72     ..qy.ki..s..z{.r
    2794:	70 80 7a 6b 83 9c 75 88 a4 75 6e 89 7a 64 7c 88     p.zk..u..un.zd|.
    27a4:	76 8a 9b 83 7f 8c 75 71 7f 6d 5f 80 97 78 91 a8     v.....uq.m_..x..
    27b4:	72 6f 8d 74 68 86 80 6f 92 98 7b 86 89 71 71 7c     ro.th..o..{..qq|
    27c4:	65 59 8a 91 79 a9 a0 6c 88 89 5f 6c 87 7a 7d 96     eY..y..l.._l.z}.
    27d4:	8b 83 95 80 6f 7f 71 53 72 99 7c 8f ad 80 80 94     ....o.qSr.|.....
    27e4:	6d 5c 7a 74 70 97 98 81 97 92 71 76 77 5a 62 91     m\ztp.....qvwZb.
    27f4:	82 85 b3 8b 72 93 79 58 75 75 67 8e 9d 88 98 96     ....r.yXuug.....
    2804:	77 75 71 58 60 8e 82 7e ad 92 78 92 7b 5b 76 70     wuqX`..~..x.{[vp
    2814:	66 90 91 83 9f 97 76 7d 74 55 59 84 7f 88 b6 90     f.....v}tUY.....
    2824:	7d 97 75 5a 7c 70 60 91 97 8f a1 91 79 7f 6e 50     }.uZ|p`.....y.nP
    2834:	64 89 73 85 b5 8f 86 98 6f 5f 7a 67 6c 92 89 8d     d.s.....o_zgl...
    2844:	a7 92 7b 81 6c 54 67 7d 75 98 a9 85 92 92 68 6b     ..{.lTg}u.....hk
    2854:	77 5a 72 92 87 97 a1 86 7b 7d 65 59 79 7b 75 a1     wZr.....{}eYy{u.
    2864:	9d 85 97 85 64 74 6f 62 82 84 80 99 97 84 82 78     ....dtob.......x
    2874:	62 66 78 71 8b a8 8b 8c 97 75 6d 7a 63 6a 89 87     bfxq.....umzcj..
    2884:	8e 9b 8f 80 7e 6c 5e 76 76 6d 95 a1 8e 98 8e 6e     ....~l^vvm.....n
    2894:	73 70 63 78 84 88 98 99 8b 80 74 5e 62 76 70 86     spcx......t^bvp.
    28a4:	9e 90 97 9b 7b 72 79 62 68 7c 81 90 99 97 8b 7b     ....{rybh|.....{
    28b4:	66 5a 6f 6f 6f 95 9d 96 9f 90 75 76 6a 60 78 7a     fZooo.....uvj`xz
    28c4:	83 95 97 92 88 7b 62 5e 6b 69 80 96 94 9f a0 87     .....{b^ki......
    28d4:	7c 77 5d 67 75 7a 8f 9a 9d 8f 7e 6f 61 6a 66 6e     |w]guz....~oajfn
    28e4:	8e 8f 91 a3 96 81 80 6d 66 71 6c 7e 90 96 9d 91     .......mfql~....
    28f4:	7e 65 63 6b 68 80 8e 8c 9d 9a 85 85 7b 63 6c 72     ~eckh.......{clr
    2904:	78 8b 8d 92 91 88 79 67 6d 66 6f 8a 89 93 a0 92     x.....ygmfo.....
    2914:	82 7f 6c 68 71 71 82 8c 94 99 88 78 6b 6c 6d 65     ..lhqq.....xklme
    2924:	82 90 8c 9a 96 89 86 77 66 71 6f 75 8b 8f 96 92     .......wfqou....
    2934:	84 75 68 6e 63 6e 8e 8b 92 9e 90 87 83 6c 6a 75     .uhncn.......lju
    2944:	6f 7f 89 8c 96 8f 7d 6b 70 72 65 79 8a 8a 97 99     o.....}kprey....
    2954:	8a 89 80 68 6d 71 78 87 89 91 91 82 73 67 70 70     ...hmqx.....sgpp
    2964:	72 89 86 8a 99 8f 83 89 7a 6e 77 70 7c 8b 88 8e     r.......znwp|...
    2974:	8d 81 6d 65 71 6a 79 90 8b 95 97 83 82 87 71 72     ..meqjy.......qr
    2984:	78 71 83 8a 8d 92 84 78 6b 6e 6f 6a 83 87 87 9d     xq.....xknoj....
    2994:	99 85 86 79 67 78 76 77 8e 8a 86 8b 88 75 66 72     ...ygxvw.....ufr
    29a4:	6e 72 8c 86 88 99 8d 82 8a 7b 70 77 6e 7d 8f 89     nr.......{pwn}..
    29b4:	8a 8a 7f 6e 6b 74 6a 7c 90 85 91 98 83 7d 81 72     ...nktj|.....}.r
    29c4:	7a 7e 73 85 8b 86 89 84 7a 6d 6e 71 6f 86 8b 87     z~s.....zmnqo...
    29d4:	98 94 81 81 7b 6b 77 78 7c 91 90 8b 84 7b 75 6c     ....{kwx|....{ul
    29e4:	70 6d 76 8d 89 7d 7e 8d 93 85 72 86 8f 67 67 8c     pmv..}~...r..gg.
    29f4:	9a 92 81 7b 75 74 71 5c 76 95 93 96 8e 80 85 85     ...{utq\v.......
    2a04:	7f 99 80 52 6f 92 9a 8b 77 76 76 7a 67 59 80 95     ...Ro...wvvzgY..
    2a14:	94 96 8c 81 84 7d 70 7c 70 6e 87 8e 90 85 7c 74     .....}p|pn....|t
    2a24:	6f 77 67 6e 8a 8b 94 9a 8b 7b 6f 64 79 88 6b 70     owgn.....{ody.kp
    2a34:	87 96 9f 8b 73 6a 73 76 67 7c 8d 8e 9e 9c 85 80     ....sjsvg|......
    2a44:	80 71 7b 72 67 81 8d 96 97 84 76 6d 71 69 66 83     .q{rg.....vmqif.
    2a54:	8d 98 a3 91 82 83 73 6e 87 79 71 7a 83 9e 9a 83     ......sn.yqz....
    2a64:	67 62 75 6b 73 85 85 96 a0 93 82 7f 80 7f 80 7f     gbuks...........
    2a74:	80 7f 80 80 7f 80 7f 7f 7f 7f 7f 7f 7f 80 80 80     ................
    2a84:	80 80 80 80 80 80 80 80 80 80 80 80 80 80 80 80     ................
    2a94:	80 80 80 80 80 80 80 80 80 80 80 80 80 80 80 80     ................
    2aa4:	80 80 80 80 80 80 80 80 80 80 80 80 80 80 80 80     ................
    2ab4:	80 80 80 80 80 80 80 80 80 80 80 80 80 80 80 80     ................
    2ac4:	80 80 80 80 80 80 80 80 80 80 80 80 80 80 80 80     ................
    2ad4:	80 80 80 80 80 80 80 80 80 80 80 80 80 80 80 80     ................
    2ae4:	80 80 80 80 80 80 80 80 80 80 80 80 80 80 80 80     ................
    2af4:	80 80 80 80 80 80 80 80 80 80 80 80 80 80 80 80     ................
    2b04:	80 80 80 80 80 80 80 80 80 80 80 80 80 80 80 80     ................
    2b14:	80 80 80 80 80 80 80 80 80 80 80 80 80 80 80 80     ................
    2b24:	80 80 80 80 80 80 80 80 80 80 80 80 80 80 80 80     ................
    2b34:	80 80 80 80 80 80 80 80 80 80 80 80 80 80 80 80     ................
    2b44:	80 80 80 80 80 80 80 80 80 80 80 80 80 80           ..............

00002b52 <__ctors_end>:
    2b52:	11 24       	eor	r1, r1
    2b54:	1f be       	out	0x3f, r1	; 63
    2b56:	cf e5       	ldi	r28, 0x5F	; 95
    2b58:	d8 e0       	ldi	r29, 0x08	; 8
    2b5a:	de bf       	out	0x3e, r29	; 62
    2b5c:	cd bf       	out	0x3d, r28	; 61

00002b5e <__do_copy_data>:
    2b5e:	10 e0       	ldi	r17, 0x00	; 0
    2b60:	a0 e6       	ldi	r26, 0x60	; 96
    2b62:	b0 e0       	ldi	r27, 0x00	; 0
    2b64:	ec ee       	ldi	r30, 0xEC	; 236
    2b66:	f4 e3       	ldi	r31, 0x34	; 52
    2b68:	02 c0       	rjmp	.+4      	; 0x2b6e <__do_copy_data+0x10>
    2b6a:	05 90       	lpm	r0, Z+
    2b6c:	0d 92       	st	X+, r0
    2b6e:	a2 37       	cpi	r26, 0x72	; 114
    2b70:	b1 07       	cpc	r27, r17
    2b72:	d9 f7       	brne	.-10     	; 0x2b6a <__do_copy_data+0xc>

00002b74 <__do_clear_bss>:
    2b74:	10 e0       	ldi	r17, 0x00	; 0
    2b76:	a2 e7       	ldi	r26, 0x72	; 114
    2b78:	b0 e0       	ldi	r27, 0x00	; 0
    2b7a:	01 c0       	rjmp	.+2      	; 0x2b7e <.do_clear_bss_start>

00002b7c <.do_clear_bss_loop>:
    2b7c:	1d 92       	st	X+, r1

00002b7e <.do_clear_bss_start>:
    2b7e:	a7 37       	cpi	r26, 0x77	; 119
    2b80:	b1 07       	cpc	r27, r17
    2b82:	e1 f7       	brne	.-8      	; 0x2b7c <.do_clear_bss_loop>
    2b84:	0e 94 8d 19 	call	0x331a	; 0x331a <main>
    2b88:	0c 94 74 1a 	jmp	0x34e8	; 0x34e8 <_exit>

00002b8c <__bad_interrupt>:
    2b8c:	0c 94 00 00 	jmp	0	; 0x0 <__vectors>

00002b90 <DIO_voidInitialize>:
#include "DIO_Config.h"
#include "DIO_Interface.h" //DIO INTERFACE FILE


void DIO_voidInitialize(void)
{
    2b90:	cf 93       	push	r28
    2b92:	df 93       	push	r29
    2b94:	cd b7       	in	r28, 0x3d	; 61
    2b96:	de b7       	in	r29, 0x3e	; 62

DDRA = REGISTER_VALUE( DIO_u8PIN_0_DIRECTION , DIO_u8PIN_1_DIRECTION , DIO_u8PIN_2_DIRECTION,
    2b98:	8a e3       	ldi	r24, 0x3A	; 58
    2b9a:	90 e0       	ldi	r25, 0x00	; 0
    2b9c:	2f ef       	ldi	r18, 0xFF	; 255
    2b9e:	fc 01       	movw	r30, r24
    2ba0:	20 83       	st	Z, r18
		DIO_u8PIN_3_DIRECTION,DIO_u8PIN_4_DIRECTION,DIO_u8PIN_5_DIRECTION,DIO_u8PIN_6_DIRECTION,DIO_u8PIN_7_DIRECTION);

DDRB = REGISTER_VALUE(DIO_u8PIN_8_DIRECTION,DIO_u8PIN_9_DIRECTION, DIO_u8PIN_10_DIRECTION,
    2ba2:	87 e3       	ldi	r24, 0x37	; 55
    2ba4:	90 e0       	ldi	r25, 0x00	; 0
    2ba6:	fc 01       	movw	r30, r24
    2ba8:	10 82       	st	Z, r1
		DIO_u8PIN_11_DIRECTION , DIO_u8PIN_12_DIRECTION, DIO_u8PIN_13_DIRECTION,DIO_u8PIN_14_DIRECTION,DIO_u8PIN_15_DIRECTION);

DDRC=REGISTER_VALUE(DIO_u8PIN_16_DIRECTION,DIO_u8PIN_17_DIRECTION,DIO_u8PIN_18_DIRECTION,
    2baa:	84 e3       	ldi	r24, 0x34	; 52
    2bac:	90 e0       	ldi	r25, 0x00	; 0
    2bae:	2f ef       	ldi	r18, 0xFF	; 255
    2bb0:	fc 01       	movw	r30, r24
    2bb2:	20 83       	st	Z, r18
		DIO_u8PIN_19_DIRECTION,DIO_u8PIN_20_DIRECTION,DIO_u8PIN_21_DIRECTION,DIO_u8PIN_22_DIRECTION,DIO_u8PIN_23_DIRECTION);

DDRD=REGISTER_VALUE(DIO_u8PIN_24_DIRECTION,DIO_u8PIN_25_DIRECTION,DIO_u8PIN_26_DIRECTION,
    2bb4:	81 e3       	ldi	r24, 0x31	; 49
    2bb6:	90 e0       	ldi	r25, 0x00	; 0
    2bb8:	2f ef       	ldi	r18, 0xFF	; 255
    2bba:	fc 01       	movw	r30, r24
    2bbc:	20 83       	st	Z, r18
		DIO_u8PIN_27_DIRECTION,DIO_u8PIN_28_DIRECTION,DIO_u8PIN_29_DIRECTION,DIO_u8PIN_30_DIRECTION,DIO_u8PIN_31_DIRECTION);



PORTA=REGISTER_VALUE(DIO_u8PIN_0_INITIAL,DIO_u8PIN_1_INITIAL,DIO_u8PIN_2_INITIAL,DIO_u8PIN_3_INITIAL,DIO_u8PIN_4_INITIAL,
    2bbe:	8b e3       	ldi	r24, 0x3B	; 59
    2bc0:	90 e0       	ldi	r25, 0x00	; 0
    2bc2:	fc 01       	movw	r30, r24
    2bc4:	10 82       	st	Z, r1
		DIO_u8PIN_5_INITIAL,DIO_u8PIN_6_INITIAL,DIO_u8PIN_7_INITIAL);

PORTB=REGISTER_VALUE(DIO_u8PIN_8_INITIAL,DIO_u8PIN_9_INITIAL,DIO_u8PIN_10_INITIAL,DIO_u8PIN_11_INITIAL,DIO_u8PIN_12_INITIAL,
    2bc6:	88 e3       	ldi	r24, 0x38	; 56
    2bc8:	90 e0       	ldi	r25, 0x00	; 0
    2bca:	fc 01       	movw	r30, r24
    2bcc:	10 82       	st	Z, r1
		DIO_u8PIN_13_INITIAL,DIO_u8PIN_14_INITIAL,DIO_u8PIN_15_INITIAL);

PORTC=REGISTER_VALUE(DIO_u8PIN_16_INITIAL,DIO_u8PIN_17_INITIAL,DIO_u8PIN_18_INITIAL,DIO_u8PIN_19_INITIAL,DIO_u8PIN_20_INITIAL,
    2bce:	85 e3       	ldi	r24, 0x35	; 53
    2bd0:	90 e0       	ldi	r25, 0x00	; 0
    2bd2:	fc 01       	movw	r30, r24
    2bd4:	10 82       	st	Z, r1
		DIO_u8PIN_21_INITIAL,DIO_u8PIN_22_INITIAL,DIO_u8PIN_23_INITIAL);

PORTD=REGISTER_VALUE(DIO_u8PIN_24_INITIAL,DIO_u8PIN_25_INITIAL,DIO_u8PIN_26_INITIAL,DIO_u8PIN_27_INITIAL,DIO_u8PIN_28_INITIAL,
    2bd6:	82 e3       	ldi	r24, 0x32	; 50
    2bd8:	90 e0       	ldi	r25, 0x00	; 0
    2bda:	fc 01       	movw	r30, r24
    2bdc:	10 82       	st	Z, r1
		DIO_u8PIN_29_INITIAL,DIO_u8PIN_30_INITIAL,DIO_u8PIN_31_INITIAL);

}
    2bde:	df 91       	pop	r29
    2be0:	cf 91       	pop	r28
    2be2:	08 95       	ret

00002be4 <DIO_u8SetPortDirection>:
 * 																												*
 * 																												*
 * **************************************************************************************************************/

u8 DIO_u8SetPortDirection(pu8 Copy_pu8DDR , u8 Copy_u8Direction) // HEADER OF THE FUNCTION
{
    2be4:	cf 93       	push	r28
    2be6:	df 93       	push	r29
    2be8:	00 d0       	rcall	.+0      	; 0x2bea <DIO_u8SetPortDirection+0x6>
    2bea:	1f 92       	push	r1
    2bec:	cd b7       	in	r28, 0x3d	; 61
    2bee:	de b7       	in	r29, 0x3e	; 62
    2bf0:	9a 83       	std	Y+2, r25	; 0x02
    2bf2:	89 83       	std	Y+1, r24	; 0x01
    2bf4:	6b 83       	std	Y+3, r22	; 0x03

	if(Copy_u8Direction == DIO_INPUT) // CHECKING ON THE VALUE OF THE DIRECTION IF IT IS INPUT
    2bf6:	8b 81       	ldd	r24, Y+3	; 0x03
    2bf8:	88 23       	and	r24, r24
    2bfa:	31 f4       	brne	.+12     	; 0x2c08 <DIO_u8SetPortDirection+0x24>
	{
		*(Copy_pu8DDR)= DIO_PORT_INPUT; // ASSIGNING THE INPUT VALUE TO THE REQUIRED DDR
    2bfc:	89 81       	ldd	r24, Y+1	; 0x01
    2bfe:	9a 81       	ldd	r25, Y+2	; 0x02
    2c00:	fc 01       	movw	r30, r24
    2c02:	10 82       	st	Z, r1
		return OK;					// RETURNING TO THE CALLER
    2c04:	81 e0       	ldi	r24, 0x01	; 1
    2c06:	10 c0       	rjmp	.+32     	; 0x2c28 <DIO_u8SetPortDirection+0x44>
	}
	else if (Copy_u8Direction == DIO_OUTPUT) // CHECKING ON THE VALUE OF THE DIRECTION IF IT IS OUTPUT
    2c08:	8b 81       	ldd	r24, Y+3	; 0x03
    2c0a:	81 30       	cpi	r24, 0x01	; 1
    2c0c:	39 f4       	brne	.+14     	; 0x2c1c <DIO_u8SetPortDirection+0x38>
	{
		*(Copy_pu8DDR)=DIO_PORT_OUTPUT; // ASSIGNING THE OUTPUT VALUE TO THE REQUIRED DDR
    2c0e:	89 81       	ldd	r24, Y+1	; 0x01
    2c10:	9a 81       	ldd	r25, Y+2	; 0x02
    2c12:	2f ef       	ldi	r18, 0xFF	; 255
    2c14:	fc 01       	movw	r30, r24
    2c16:	20 83       	st	Z, r18
		return OK; // RETURNING TO THE CALLER
    2c18:	81 e0       	ldi	r24, 0x01	; 1
    2c1a:	06 c0       	rjmp	.+12     	; 0x2c28 <DIO_u8SetPortDirection+0x44>
	}
	else // IN CASE OF THE USER ENTERED ANOTHER VALUE RATHER THAN EXPECTED
	{

		*(Copy_pu8DDR)=DIO_PORT_OUTPUT; //THE DEFAULT VALUE
    2c1c:	89 81       	ldd	r24, Y+1	; 0x01
    2c1e:	9a 81       	ldd	r25, Y+2	; 0x02
    2c20:	2f ef       	ldi	r18, 0xFF	; 255
    2c22:	fc 01       	movw	r30, r24
    2c24:	20 83       	st	Z, r18
		return ERROR; // RETURNING THE ERROR INDICATOR
    2c26:	80 e0       	ldi	r24, 0x00	; 0
	}
	return ERROR; // RETURNING THE ERROR INDICATOR INCASE OF ANY UNEXPECTED EVENT

}
    2c28:	0f 90       	pop	r0
    2c2a:	0f 90       	pop	r0
    2c2c:	0f 90       	pop	r0
    2c2e:	df 91       	pop	r29
    2c30:	cf 91       	pop	r28
    2c32:	08 95       	ret

00002c34 <DIO_u8SetPinDirection>:
 * 																												*
 * 																												*
 * **************************************************************************************************************/

u8 DIO_u8SetPinDirection(u8 Copy_u8PinNumber , u8 Copy_u8Direction) // HEADER OF THE FUNCTION
{
    2c34:	cf 93       	push	r28
    2c36:	df 93       	push	r29
    2c38:	00 d0       	rcall	.+0      	; 0x2c3a <DIO_u8SetPinDirection+0x6>
    2c3a:	cd b7       	in	r28, 0x3d	; 61
    2c3c:	de b7       	in	r29, 0x3e	; 62
    2c3e:	89 83       	std	Y+1, r24	; 0x01
    2c40:	6a 83       	std	Y+2, r22	; 0x02

	switch (Copy_u8PinNumber)
    2c42:	89 81       	ldd	r24, Y+1	; 0x01
    2c44:	88 2f       	mov	r24, r24
    2c46:	90 e0       	ldi	r25, 0x00	; 0
    2c48:	aa 27       	eor	r26, r26
    2c4a:	97 fd       	sbrc	r25, 7
    2c4c:	a0 95       	com	r26
    2c4e:	ba 2f       	mov	r27, r26
    2c50:	40 e0       	ldi	r20, 0x00	; 0
    2c52:	50 e0       	ldi	r21, 0x00	; 0
    2c54:	2f e1       	ldi	r18, 0x1F	; 31
    2c56:	30 e0       	ldi	r19, 0x00	; 0
    2c58:	84 1b       	sub	r24, r20
    2c5a:	95 0b       	sbc	r25, r21
    2c5c:	28 17       	cp	r18, r24
    2c5e:	39 07       	cpc	r19, r25
    2c60:	08 f4       	brcc	.+2      	; 0x2c64 <DIO_u8SetPinDirection+0x30>
    2c62:	f9 c0       	rjmp	.+498    	; 0x2e56 <DIO_u8SetPinDirection+0x222>
    2c64:	86 5d       	subi	r24, 0xD6	; 214
    2c66:	9f 4f       	sbci	r25, 0xFF	; 255
    2c68:	fc 01       	movw	r30, r24
    2c6a:	0c 94 6e 1a 	jmp	0x34dc	; 0x34dc <__tablejump2__>
	case PIN_3:
	case PIN_4:
	case PIN_5:
	case PIN_6:
	case PIN_7:
		if (Copy_u8Direction == DIO_INPUT) //CHECKING IF THE THE DIRECTION IS INPUT AND THE REQUIRED PIN BELONGS TO DDRA AND ASSIGN
    2c6e:	8a 81       	ldd	r24, Y+2	; 0x02
    2c70:	88 23       	and	r24, r24
    2c72:	d9 f4       	brne	.+54     	; 0x2caa <DIO_u8SetPinDirection+0x76>
		{                                  //THE CORESSPONDING VALUE
			clrBit(DDRA,(Copy_u8PinNumber%8));
    2c74:	8a e3       	ldi	r24, 0x3A	; 58
    2c76:	90 e0       	ldi	r25, 0x00	; 0
    2c78:	2a e3       	ldi	r18, 0x3A	; 58
    2c7a:	30 e0       	ldi	r19, 0x00	; 0
    2c7c:	f9 01       	movw	r30, r18
    2c7e:	20 81       	ld	r18, Z
    2c80:	62 2f       	mov	r22, r18
    2c82:	29 81       	ldd	r18, Y+1	; 0x01
    2c84:	22 2f       	mov	r18, r18
    2c86:	30 e0       	ldi	r19, 0x00	; 0
    2c88:	a9 01       	movw	r20, r18
    2c8a:	47 70       	andi	r20, 0x07	; 7
    2c8c:	55 27       	eor	r21, r21
    2c8e:	21 e0       	ldi	r18, 0x01	; 1
    2c90:	30 e0       	ldi	r19, 0x00	; 0
    2c92:	04 2e       	mov	r0, r20
    2c94:	02 c0       	rjmp	.+4      	; 0x2c9a <DIO_u8SetPinDirection+0x66>
    2c96:	22 0f       	add	r18, r18
    2c98:	33 1f       	adc	r19, r19
    2c9a:	0a 94       	dec	r0
    2c9c:	e2 f7       	brpl	.-8      	; 0x2c96 <DIO_u8SetPinDirection+0x62>
    2c9e:	20 95       	com	r18
    2ca0:	26 23       	and	r18, r22
    2ca2:	fc 01       	movw	r30, r24
    2ca4:	20 83       	st	Z, r18
			return OK;// only once
    2ca6:	81 e0       	ldi	r24, 0x01	; 1
    2ca8:	d7 c0       	rjmp	.+430    	; 0x2e58 <DIO_u8SetPinDirection+0x224>
		}
		else if (Copy_u8Direction == DIO_OUTPUT)//CHECKING IF THE THE DIRECTION IS OUTPUT AND THE REQUIRED PIN BELONGS TO DDRA AND ASSIGN
    2caa:	8a 81       	ldd	r24, Y+2	; 0x02
    2cac:	81 30       	cpi	r24, 0x01	; 1
    2cae:	d1 f4       	brne	.+52     	; 0x2ce4 <DIO_u8SetPinDirection+0xb0>
		{                                       //THE CORESSPONDING VALUE
			setBit(DDRA,(Copy_u8PinNumber%8));
    2cb0:	8a e3       	ldi	r24, 0x3A	; 58
    2cb2:	90 e0       	ldi	r25, 0x00	; 0
    2cb4:	2a e3       	ldi	r18, 0x3A	; 58
    2cb6:	30 e0       	ldi	r19, 0x00	; 0
    2cb8:	f9 01       	movw	r30, r18
    2cba:	20 81       	ld	r18, Z
    2cbc:	62 2f       	mov	r22, r18
    2cbe:	29 81       	ldd	r18, Y+1	; 0x01
    2cc0:	22 2f       	mov	r18, r18
    2cc2:	30 e0       	ldi	r19, 0x00	; 0
    2cc4:	a9 01       	movw	r20, r18
    2cc6:	47 70       	andi	r20, 0x07	; 7
    2cc8:	55 27       	eor	r21, r21
    2cca:	21 e0       	ldi	r18, 0x01	; 1
    2ccc:	30 e0       	ldi	r19, 0x00	; 0
    2cce:	04 2e       	mov	r0, r20
    2cd0:	02 c0       	rjmp	.+4      	; 0x2cd6 <DIO_u8SetPinDirection+0xa2>
    2cd2:	22 0f       	add	r18, r18
    2cd4:	33 1f       	adc	r19, r19
    2cd6:	0a 94       	dec	r0
    2cd8:	e2 f7       	brpl	.-8      	; 0x2cd2 <DIO_u8SetPinDirection+0x9e>
    2cda:	26 2b       	or	r18, r22
    2cdc:	fc 01       	movw	r30, r24
    2cde:	20 83       	st	Z, r18
			return OK;
    2ce0:	81 e0       	ldi	r24, 0x01	; 1
    2ce2:	ba c0       	rjmp	.+372    	; 0x2e58 <DIO_u8SetPinDirection+0x224>
		}
		else  //IF THE DIRECTIONE NEITHER INPUT NOR OUTPUT RETURNING AN ERROR SIGNAL
			return ERROR;
    2ce4:	80 e0       	ldi	r24, 0x00	; 0
    2ce6:	b8 c0       	rjmp	.+368    	; 0x2e58 <DIO_u8SetPinDirection+0x224>
	case PIN_11:
	case PIN_12:
	case PIN_13:
    case PIN_14:
    case PIN_15:
    	if (Copy_u8Direction == DIO_INPUT)//CHECKING IF THE THE DIRECTION IS INPUT AND THE REQUIRED PIN BELONGS TO DDRB AND ASSIGN
    2ce8:	8a 81       	ldd	r24, Y+2	; 0x02
    2cea:	88 23       	and	r24, r24
    2cec:	d9 f4       	brne	.+54     	; 0x2d24 <DIO_u8SetPinDirection+0xf0>
    			{							//THE CORESSPONDING VALUE
    				clrBit(DDRB,(Copy_u8PinNumber%8));
    2cee:	87 e3       	ldi	r24, 0x37	; 55
    2cf0:	90 e0       	ldi	r25, 0x00	; 0
    2cf2:	27 e3       	ldi	r18, 0x37	; 55
    2cf4:	30 e0       	ldi	r19, 0x00	; 0
    2cf6:	f9 01       	movw	r30, r18
    2cf8:	20 81       	ld	r18, Z
    2cfa:	62 2f       	mov	r22, r18
    2cfc:	29 81       	ldd	r18, Y+1	; 0x01
    2cfe:	22 2f       	mov	r18, r18
    2d00:	30 e0       	ldi	r19, 0x00	; 0
    2d02:	a9 01       	movw	r20, r18
    2d04:	47 70       	andi	r20, 0x07	; 7
    2d06:	55 27       	eor	r21, r21
    2d08:	21 e0       	ldi	r18, 0x01	; 1
    2d0a:	30 e0       	ldi	r19, 0x00	; 0
    2d0c:	04 2e       	mov	r0, r20
    2d0e:	02 c0       	rjmp	.+4      	; 0x2d14 <DIO_u8SetPinDirection+0xe0>
    2d10:	22 0f       	add	r18, r18
    2d12:	33 1f       	adc	r19, r19
    2d14:	0a 94       	dec	r0
    2d16:	e2 f7       	brpl	.-8      	; 0x2d10 <DIO_u8SetPinDirection+0xdc>
    2d18:	20 95       	com	r18
    2d1a:	26 23       	and	r18, r22
    2d1c:	fc 01       	movw	r30, r24
    2d1e:	20 83       	st	Z, r18
    				return OK;
    2d20:	81 e0       	ldi	r24, 0x01	; 1
    2d22:	9a c0       	rjmp	.+308    	; 0x2e58 <DIO_u8SetPinDirection+0x224>
    			}
    			else if (Copy_u8Direction == DIO_OUTPUT)//CHECKING IF THE THE DIRECTION IS OUTPUT AND THE REQUIRED PIN BELONGS TO DDRB AND ASSIGN
    2d24:	8a 81       	ldd	r24, Y+2	; 0x02
    2d26:	81 30       	cpi	r24, 0x01	; 1
    2d28:	d1 f4       	brne	.+52     	; 0x2d5e <DIO_u8SetPinDirection+0x12a>
    			{							//THE CORESSPONDING VALUE
    				setBit(DDRB,(Copy_u8PinNumber%8));
    2d2a:	87 e3       	ldi	r24, 0x37	; 55
    2d2c:	90 e0       	ldi	r25, 0x00	; 0
    2d2e:	27 e3       	ldi	r18, 0x37	; 55
    2d30:	30 e0       	ldi	r19, 0x00	; 0
    2d32:	f9 01       	movw	r30, r18
    2d34:	20 81       	ld	r18, Z
    2d36:	62 2f       	mov	r22, r18
    2d38:	29 81       	ldd	r18, Y+1	; 0x01
    2d3a:	22 2f       	mov	r18, r18
    2d3c:	30 e0       	ldi	r19, 0x00	; 0
    2d3e:	a9 01       	movw	r20, r18
    2d40:	47 70       	andi	r20, 0x07	; 7
    2d42:	55 27       	eor	r21, r21
    2d44:	21 e0       	ldi	r18, 0x01	; 1
    2d46:	30 e0       	ldi	r19, 0x00	; 0
    2d48:	04 2e       	mov	r0, r20
    2d4a:	02 c0       	rjmp	.+4      	; 0x2d50 <DIO_u8SetPinDirection+0x11c>
    2d4c:	22 0f       	add	r18, r18
    2d4e:	33 1f       	adc	r19, r19
    2d50:	0a 94       	dec	r0
    2d52:	e2 f7       	brpl	.-8      	; 0x2d4c <DIO_u8SetPinDirection+0x118>
    2d54:	26 2b       	or	r18, r22
    2d56:	fc 01       	movw	r30, r24
    2d58:	20 83       	st	Z, r18
    				return OK;
    2d5a:	81 e0       	ldi	r24, 0x01	; 1
    2d5c:	7d c0       	rjmp	.+250    	; 0x2e58 <DIO_u8SetPinDirection+0x224>
    			}
    			else //IF THE DIRECTIONE NEITHER INPUT NOR OUTPUT RETURNING AN ERROR SIGNAL
    				return ERROR;
    2d5e:	80 e0       	ldi	r24, 0x00	; 0
    2d60:	7b c0       	rjmp	.+246    	; 0x2e58 <DIO_u8SetPinDirection+0x224>
    case PIN_19:
   	case PIN_20 :
   	case PIN_21:
    case PIN_22:
   	case PIN_23:
   		if (Copy_u8Direction == DIO_INPUT)//CHECKING IF THE THE DIRECTION IS INPUT AND THE REQUIRED PIN BELONGS TO DDRC AND ASSIGN
    2d62:	8a 81       	ldd	r24, Y+2	; 0x02
    2d64:	88 23       	and	r24, r24
    2d66:	d9 f4       	brne	.+54     	; 0x2d9e <DIO_u8SetPinDirection+0x16a>
      			{									//THE CORESSPONDING VALUE
       				clrBit(DDRC,(Copy_u8PinNumber%8));
    2d68:	84 e3       	ldi	r24, 0x34	; 52
    2d6a:	90 e0       	ldi	r25, 0x00	; 0
    2d6c:	24 e3       	ldi	r18, 0x34	; 52
    2d6e:	30 e0       	ldi	r19, 0x00	; 0
    2d70:	f9 01       	movw	r30, r18
    2d72:	20 81       	ld	r18, Z
    2d74:	62 2f       	mov	r22, r18
    2d76:	29 81       	ldd	r18, Y+1	; 0x01
    2d78:	22 2f       	mov	r18, r18
    2d7a:	30 e0       	ldi	r19, 0x00	; 0
    2d7c:	a9 01       	movw	r20, r18
    2d7e:	47 70       	andi	r20, 0x07	; 7
    2d80:	55 27       	eor	r21, r21
    2d82:	21 e0       	ldi	r18, 0x01	; 1
    2d84:	30 e0       	ldi	r19, 0x00	; 0
    2d86:	04 2e       	mov	r0, r20
    2d88:	02 c0       	rjmp	.+4      	; 0x2d8e <DIO_u8SetPinDirection+0x15a>
    2d8a:	22 0f       	add	r18, r18
    2d8c:	33 1f       	adc	r19, r19
    2d8e:	0a 94       	dec	r0
    2d90:	e2 f7       	brpl	.-8      	; 0x2d8a <DIO_u8SetPinDirection+0x156>
    2d92:	20 95       	com	r18
    2d94:	26 23       	and	r18, r22
    2d96:	fc 01       	movw	r30, r24
    2d98:	20 83       	st	Z, r18
       				return OK;
    2d9a:	81 e0       	ldi	r24, 0x01	; 1
    2d9c:	5d c0       	rjmp	.+186    	; 0x2e58 <DIO_u8SetPinDirection+0x224>
       			}
       			else if (Copy_u8Direction == DIO_OUTPUT)//CHECKING IF THE THE DIRECTION IS OUTPUT AND THE REQUIRED PIN BELONGS TO DDRC AND ASSIGN
    2d9e:	8a 81       	ldd	r24, Y+2	; 0x02
    2da0:	81 30       	cpi	r24, 0x01	; 1
    2da2:	d1 f4       	brne	.+52     	; 0x2dd8 <DIO_u8SetPinDirection+0x1a4>
   	  			{									//THE CORESSPONDING VALUE
   	   				setBit(DDRC,(Copy_u8PinNumber%8));
    2da4:	84 e3       	ldi	r24, 0x34	; 52
    2da6:	90 e0       	ldi	r25, 0x00	; 0
    2da8:	24 e3       	ldi	r18, 0x34	; 52
    2daa:	30 e0       	ldi	r19, 0x00	; 0
    2dac:	f9 01       	movw	r30, r18
    2dae:	20 81       	ld	r18, Z
    2db0:	62 2f       	mov	r22, r18
    2db2:	29 81       	ldd	r18, Y+1	; 0x01
    2db4:	22 2f       	mov	r18, r18
    2db6:	30 e0       	ldi	r19, 0x00	; 0
    2db8:	a9 01       	movw	r20, r18
    2dba:	47 70       	andi	r20, 0x07	; 7
    2dbc:	55 27       	eor	r21, r21
    2dbe:	21 e0       	ldi	r18, 0x01	; 1
    2dc0:	30 e0       	ldi	r19, 0x00	; 0
    2dc2:	04 2e       	mov	r0, r20
    2dc4:	02 c0       	rjmp	.+4      	; 0x2dca <DIO_u8SetPinDirection+0x196>
    2dc6:	22 0f       	add	r18, r18
    2dc8:	33 1f       	adc	r19, r19
    2dca:	0a 94       	dec	r0
    2dcc:	e2 f7       	brpl	.-8      	; 0x2dc6 <DIO_u8SetPinDirection+0x192>
    2dce:	26 2b       	or	r18, r22
    2dd0:	fc 01       	movw	r30, r24
    2dd2:	20 83       	st	Z, r18
       				return OK;
    2dd4:	81 e0       	ldi	r24, 0x01	; 1
    2dd6:	40 c0       	rjmp	.+128    	; 0x2e58 <DIO_u8SetPinDirection+0x224>
       			}
   	   			else //IF THE DIRECTIONE NEITHER INPUT NOR OUTPUT RETURNING AN ERROR SIGNAL
   	   				return ERROR;
    2dd8:	80 e0       	ldi	r24, 0x00	; 0
    2dda:	3e c0       	rjmp	.+124    	; 0x2e58 <DIO_u8SetPinDirection+0x224>
   	case PIN_27:
   	case PIN_28:
   	case PIN_29:
   	case PIN_30:
   	case PIN_31:
   	   if (Copy_u8Direction == DIO_INPUT)//CHECKING IF THE THE DIRECTION IS INPUT AND THE REQUIRED PIN BELONGS TO DDRD AND ASSIGN
    2ddc:	8a 81       	ldd	r24, Y+2	; 0x02
    2dde:	88 23       	and	r24, r24
    2de0:	d9 f4       	brne	.+54     	; 0x2e18 <DIO_u8SetPinDirection+0x1e4>
   	  			{								//THE CORESSPONDING VALUE
       				clrBit(DDRD,(Copy_u8PinNumber%8));
    2de2:	81 e3       	ldi	r24, 0x31	; 49
    2de4:	90 e0       	ldi	r25, 0x00	; 0
    2de6:	21 e3       	ldi	r18, 0x31	; 49
    2de8:	30 e0       	ldi	r19, 0x00	; 0
    2dea:	f9 01       	movw	r30, r18
    2dec:	20 81       	ld	r18, Z
    2dee:	62 2f       	mov	r22, r18
    2df0:	29 81       	ldd	r18, Y+1	; 0x01
    2df2:	22 2f       	mov	r18, r18
    2df4:	30 e0       	ldi	r19, 0x00	; 0
    2df6:	a9 01       	movw	r20, r18
    2df8:	47 70       	andi	r20, 0x07	; 7
    2dfa:	55 27       	eor	r21, r21
    2dfc:	21 e0       	ldi	r18, 0x01	; 1
    2dfe:	30 e0       	ldi	r19, 0x00	; 0
    2e00:	04 2e       	mov	r0, r20
    2e02:	02 c0       	rjmp	.+4      	; 0x2e08 <DIO_u8SetPinDirection+0x1d4>
    2e04:	22 0f       	add	r18, r18
    2e06:	33 1f       	adc	r19, r19
    2e08:	0a 94       	dec	r0
    2e0a:	e2 f7       	brpl	.-8      	; 0x2e04 <DIO_u8SetPinDirection+0x1d0>
    2e0c:	20 95       	com	r18
    2e0e:	26 23       	and	r18, r22
    2e10:	fc 01       	movw	r30, r24
    2e12:	20 83       	st	Z, r18
       				return OK;
    2e14:	81 e0       	ldi	r24, 0x01	; 1
    2e16:	20 c0       	rjmp	.+64     	; 0x2e58 <DIO_u8SetPinDirection+0x224>
   	       			}
   	       			else if (Copy_u8Direction == DIO_OUTPUT)//CHECKING IF THE THE DIRECTION IS OUTPUT AND THE REQUIRED PIN BELONGS TO DDRA AND ASSIGN
    2e18:	8a 81       	ldd	r24, Y+2	; 0x02
    2e1a:	81 30       	cpi	r24, 0x01	; 1
    2e1c:	d1 f4       	brne	.+52     	; 0x2e52 <DIO_u8SetPinDirection+0x21e>
   	   	  			{							//THE CORESSPONDING VALUE
   	   	   			setBit(DDRD,(Copy_u8PinNumber%8));
    2e1e:	81 e3       	ldi	r24, 0x31	; 49
    2e20:	90 e0       	ldi	r25, 0x00	; 0
    2e22:	21 e3       	ldi	r18, 0x31	; 49
    2e24:	30 e0       	ldi	r19, 0x00	; 0
    2e26:	f9 01       	movw	r30, r18
    2e28:	20 81       	ld	r18, Z
    2e2a:	62 2f       	mov	r22, r18
    2e2c:	29 81       	ldd	r18, Y+1	; 0x01
    2e2e:	22 2f       	mov	r18, r18
    2e30:	30 e0       	ldi	r19, 0x00	; 0
    2e32:	a9 01       	movw	r20, r18
    2e34:	47 70       	andi	r20, 0x07	; 7
    2e36:	55 27       	eor	r21, r21
    2e38:	21 e0       	ldi	r18, 0x01	; 1
    2e3a:	30 e0       	ldi	r19, 0x00	; 0
    2e3c:	04 2e       	mov	r0, r20
    2e3e:	02 c0       	rjmp	.+4      	; 0x2e44 <DIO_u8SetPinDirection+0x210>
    2e40:	22 0f       	add	r18, r18
    2e42:	33 1f       	adc	r19, r19
    2e44:	0a 94       	dec	r0
    2e46:	e2 f7       	brpl	.-8      	; 0x2e40 <DIO_u8SetPinDirection+0x20c>
    2e48:	26 2b       	or	r18, r22
    2e4a:	fc 01       	movw	r30, r24
    2e4c:	20 83       	st	Z, r18
   	       			return OK;
    2e4e:	81 e0       	ldi	r24, 0x01	; 1
    2e50:	03 c0       	rjmp	.+6      	; 0x2e58 <DIO_u8SetPinDirection+0x224>
   	       			}
   	   	   			else //IF THE DIRECTIONE NEITHER INPUT NOR OUTPUT RETURNING AN ERROR SIGNAL
   	   	   				return ERROR;
    2e52:	80 e0       	ldi	r24, 0x00	; 0
    2e54:	01 c0       	rjmp	.+2      	; 0x2e58 <DIO_u8SetPinDirection+0x224>

   		break;

   	default : return ERROR; // IF THE PIN NUMBER WAS INVALID OR OUT OF RANGE
    2e56:	80 e0       	ldi	r24, 0x00	; 0
	}
return ERROR;
}
    2e58:	0f 90       	pop	r0
    2e5a:	0f 90       	pop	r0
    2e5c:	df 91       	pop	r29
    2e5e:	cf 91       	pop	r28
    2e60:	08 95       	ret

00002e62 <DIO_u8SetPortValue>:
 * 																												*
 * 																												*
 * **************************************************************************************************************/

u8 DIO_u8SetPortValue(pu8 Copy_pu8PortName , u8 Copy_u8PortValue)// HEADER OF THE FUNCTION
{
    2e62:	cf 93       	push	r28
    2e64:	df 93       	push	r29
    2e66:	00 d0       	rcall	.+0      	; 0x2e68 <DIO_u8SetPortValue+0x6>
    2e68:	1f 92       	push	r1
    2e6a:	cd b7       	in	r28, 0x3d	; 61
    2e6c:	de b7       	in	r29, 0x3e	; 62
    2e6e:	9a 83       	std	Y+2, r25	; 0x02
    2e70:	89 83       	std	Y+1, r24	; 0x01
    2e72:	6b 83       	std	Y+3, r22	; 0x03

	while (Copy_u8PortValue <= DIO_PORT_MAX) // TO MAKE SURE THAT THE ENTERED VALUE IS LEGAL
	{

		(*(Copy_pu8PortName))= Copy_u8PortValue;  // ASSIGNING THE VALUE TO THE REQUIRED PORT
    2e74:	89 81       	ldd	r24, Y+1	; 0x01
    2e76:	9a 81       	ldd	r25, Y+2	; 0x02
    2e78:	2b 81       	ldd	r18, Y+3	; 0x03
    2e7a:	fc 01       	movw	r30, r24
    2e7c:	20 83       	st	Z, r18
		return OK;
    2e7e:	81 e0       	ldi	r24, 0x01	; 1
	}

	return ERROR;  // RETURNING THE ERROR INDICATOR INCASE OF ANY UNEXPECTED EVENT
}
    2e80:	0f 90       	pop	r0
    2e82:	0f 90       	pop	r0
    2e84:	0f 90       	pop	r0
    2e86:	df 91       	pop	r29
    2e88:	cf 91       	pop	r28
    2e8a:	08 95       	ret

00002e8c <DIO_u8SetPinValue>:
 * **************************************************************************************************************/



u8 DIO_u8SetPinValue(u8 Copy_u8PinNumber,u8 Copy_u8PinValue)// HEADER OF THE FUNCTION
{
    2e8c:	cf 93       	push	r28
    2e8e:	df 93       	push	r29
    2e90:	00 d0       	rcall	.+0      	; 0x2e92 <DIO_u8SetPinValue+0x6>
    2e92:	cd b7       	in	r28, 0x3d	; 61
    2e94:	de b7       	in	r29, 0x3e	; 62
    2e96:	89 83       	std	Y+1, r24	; 0x01
    2e98:	6a 83       	std	Y+2, r22	; 0x02
	switch (Copy_u8PinNumber)
    2e9a:	89 81       	ldd	r24, Y+1	; 0x01
    2e9c:	88 2f       	mov	r24, r24
    2e9e:	90 e0       	ldi	r25, 0x00	; 0
    2ea0:	aa 27       	eor	r26, r26
    2ea2:	97 fd       	sbrc	r25, 7
    2ea4:	a0 95       	com	r26
    2ea6:	ba 2f       	mov	r27, r26
    2ea8:	40 e0       	ldi	r20, 0x00	; 0
    2eaa:	50 e0       	ldi	r21, 0x00	; 0
    2eac:	2f e1       	ldi	r18, 0x1F	; 31
    2eae:	30 e0       	ldi	r19, 0x00	; 0
    2eb0:	84 1b       	sub	r24, r20
    2eb2:	95 0b       	sbc	r25, r21
    2eb4:	28 17       	cp	r18, r24
    2eb6:	39 07       	cpc	r19, r25
    2eb8:	08 f4       	brcc	.+2      	; 0x2ebc <DIO_u8SetPinValue+0x30>
    2eba:	f9 c0       	rjmp	.+498    	; 0x30ae <DIO_u8SetPinValue+0x222>
    2ebc:	86 5b       	subi	r24, 0xB6	; 182
    2ebe:	9f 4f       	sbci	r25, 0xFF	; 255
    2ec0:	fc 01       	movw	r30, r24
    2ec2:	0c 94 6e 1a 	jmp	0x34dc	; 0x34dc <__tablejump2__>
	case 3:
	case 4:
	case 5:
	case 6:
	case 7:
		if (Copy_u8PinValue == DIO_LOW) //CHECKING IF THE THE VALUE OF THE  REQUIRED PIN WHICH BELONGS TO DDRA IS LOW AND ASSIGN
    2ec6:	8a 81       	ldd	r24, Y+2	; 0x02
    2ec8:	88 23       	and	r24, r24
    2eca:	d9 f4       	brne	.+54     	; 0x2f02 <DIO_u8SetPinValue+0x76>
 			{								//THE CORESSPONDING VALUE

			clrBit(PORTA,(Copy_u8PinNumber%8));
    2ecc:	8b e3       	ldi	r24, 0x3B	; 59
    2ece:	90 e0       	ldi	r25, 0x00	; 0
    2ed0:	2b e3       	ldi	r18, 0x3B	; 59
    2ed2:	30 e0       	ldi	r19, 0x00	; 0
    2ed4:	f9 01       	movw	r30, r18
    2ed6:	20 81       	ld	r18, Z
    2ed8:	62 2f       	mov	r22, r18
    2eda:	29 81       	ldd	r18, Y+1	; 0x01
    2edc:	22 2f       	mov	r18, r18
    2ede:	30 e0       	ldi	r19, 0x00	; 0
    2ee0:	a9 01       	movw	r20, r18
    2ee2:	47 70       	andi	r20, 0x07	; 7
    2ee4:	55 27       	eor	r21, r21
    2ee6:	21 e0       	ldi	r18, 0x01	; 1
    2ee8:	30 e0       	ldi	r19, 0x00	; 0
    2eea:	04 2e       	mov	r0, r20
    2eec:	02 c0       	rjmp	.+4      	; 0x2ef2 <DIO_u8SetPinValue+0x66>
    2eee:	22 0f       	add	r18, r18
    2ef0:	33 1f       	adc	r19, r19
    2ef2:	0a 94       	dec	r0
    2ef4:	e2 f7       	brpl	.-8      	; 0x2eee <DIO_u8SetPinValue+0x62>
    2ef6:	20 95       	com	r18
    2ef8:	26 23       	and	r18, r22
    2efa:	fc 01       	movw	r30, r24
    2efc:	20 83       	st	Z, r18
			return OK;
    2efe:	81 e0       	ldi	r24, 0x01	; 1
    2f00:	d7 c0       	rjmp	.+430    	; 0x30b0 <DIO_u8SetPinValue+0x224>
		}
		else if (Copy_u8PinValue == DIO_HIGH) //CHECKING IF THE THE VALUE OF THE  REQUIRED PIN WHICH BELONGS TO DDRA IS HIGH AND ASSIGN
    2f02:	8a 81       	ldd	r24, Y+2	; 0x02
    2f04:	81 30       	cpi	r24, 0x01	; 1
    2f06:	d1 f4       	brne	.+52     	; 0x2f3c <DIO_u8SetPinValue+0xb0>
		{									//THE CORESSPONDING VALUE
			setBit(PORTA,(Copy_u8PinNumber%8));
    2f08:	8b e3       	ldi	r24, 0x3B	; 59
    2f0a:	90 e0       	ldi	r25, 0x00	; 0
    2f0c:	2b e3       	ldi	r18, 0x3B	; 59
    2f0e:	30 e0       	ldi	r19, 0x00	; 0
    2f10:	f9 01       	movw	r30, r18
    2f12:	20 81       	ld	r18, Z
    2f14:	62 2f       	mov	r22, r18
    2f16:	29 81       	ldd	r18, Y+1	; 0x01
    2f18:	22 2f       	mov	r18, r18
    2f1a:	30 e0       	ldi	r19, 0x00	; 0
    2f1c:	a9 01       	movw	r20, r18
    2f1e:	47 70       	andi	r20, 0x07	; 7
    2f20:	55 27       	eor	r21, r21
    2f22:	21 e0       	ldi	r18, 0x01	; 1
    2f24:	30 e0       	ldi	r19, 0x00	; 0
    2f26:	04 2e       	mov	r0, r20
    2f28:	02 c0       	rjmp	.+4      	; 0x2f2e <DIO_u8SetPinValue+0xa2>
    2f2a:	22 0f       	add	r18, r18
    2f2c:	33 1f       	adc	r19, r19
    2f2e:	0a 94       	dec	r0
    2f30:	e2 f7       	brpl	.-8      	; 0x2f2a <DIO_u8SetPinValue+0x9e>
    2f32:	26 2b       	or	r18, r22
    2f34:	fc 01       	movw	r30, r24
    2f36:	20 83       	st	Z, r18
			return OK;
    2f38:	81 e0       	ldi	r24, 0x01	; 1
    2f3a:	ba c0       	rjmp	.+372    	; 0x30b0 <DIO_u8SetPinValue+0x224>
		}
		else //IF THE VALUE NEITHER HIGH NOR LOW  RETURNING AN ERROR SIGNAL
			return ERROR;
    2f3c:	80 e0       	ldi	r24, 0x00	; 0
    2f3e:	b8 c0       	rjmp	.+368    	; 0x30b0 <DIO_u8SetPinValue+0x224>
	case 11:
	case 12:
	case 13:
    case 14:
	case 15:
			if (Copy_u8PinValue == DIO_LOW) //CHECKING IF THE THE VALUE OF THE  REQUIRED PIN WHICH BELONGS TO DDRB IS LOW AND ASSIGN
    2f40:	8a 81       	ldd	r24, Y+2	; 0x02
    2f42:	88 23       	and	r24, r24
    2f44:	d9 f4       	brne	.+54     	; 0x2f7c <DIO_u8SetPinValue+0xf0>
			{								//THE CORESSPONDING VALUE
				clrBit(PORTB,(Copy_u8PinNumber%8));
    2f46:	88 e3       	ldi	r24, 0x38	; 56
    2f48:	90 e0       	ldi	r25, 0x00	; 0
    2f4a:	28 e3       	ldi	r18, 0x38	; 56
    2f4c:	30 e0       	ldi	r19, 0x00	; 0
    2f4e:	f9 01       	movw	r30, r18
    2f50:	20 81       	ld	r18, Z
    2f52:	62 2f       	mov	r22, r18
    2f54:	29 81       	ldd	r18, Y+1	; 0x01
    2f56:	22 2f       	mov	r18, r18
    2f58:	30 e0       	ldi	r19, 0x00	; 0
    2f5a:	a9 01       	movw	r20, r18
    2f5c:	47 70       	andi	r20, 0x07	; 7
    2f5e:	55 27       	eor	r21, r21
    2f60:	21 e0       	ldi	r18, 0x01	; 1
    2f62:	30 e0       	ldi	r19, 0x00	; 0
    2f64:	04 2e       	mov	r0, r20
    2f66:	02 c0       	rjmp	.+4      	; 0x2f6c <DIO_u8SetPinValue+0xe0>
    2f68:	22 0f       	add	r18, r18
    2f6a:	33 1f       	adc	r19, r19
    2f6c:	0a 94       	dec	r0
    2f6e:	e2 f7       	brpl	.-8      	; 0x2f68 <DIO_u8SetPinValue+0xdc>
    2f70:	20 95       	com	r18
    2f72:	26 23       	and	r18, r22
    2f74:	fc 01       	movw	r30, r24
    2f76:	20 83       	st	Z, r18
				return OK;
    2f78:	81 e0       	ldi	r24, 0x01	; 1
    2f7a:	9a c0       	rjmp	.+308    	; 0x30b0 <DIO_u8SetPinValue+0x224>
			}
			else if (Copy_u8PinValue == DIO_HIGH) //CHECKING IF THE THE VALUE OF THE  REQUIRED PIN WHICH BELONGS TO DDRB IS HIGH AND ASSIGN
    2f7c:	8a 81       	ldd	r24, Y+2	; 0x02
    2f7e:	81 30       	cpi	r24, 0x01	; 1
    2f80:	d1 f4       	brne	.+52     	; 0x2fb6 <DIO_u8SetPinValue+0x12a>
			{									 //THE CORESSPONDING VALUE
				setBit(PORTB,(Copy_u8PinNumber%8));
    2f82:	88 e3       	ldi	r24, 0x38	; 56
    2f84:	90 e0       	ldi	r25, 0x00	; 0
    2f86:	28 e3       	ldi	r18, 0x38	; 56
    2f88:	30 e0       	ldi	r19, 0x00	; 0
    2f8a:	f9 01       	movw	r30, r18
    2f8c:	20 81       	ld	r18, Z
    2f8e:	62 2f       	mov	r22, r18
    2f90:	29 81       	ldd	r18, Y+1	; 0x01
    2f92:	22 2f       	mov	r18, r18
    2f94:	30 e0       	ldi	r19, 0x00	; 0
    2f96:	a9 01       	movw	r20, r18
    2f98:	47 70       	andi	r20, 0x07	; 7
    2f9a:	55 27       	eor	r21, r21
    2f9c:	21 e0       	ldi	r18, 0x01	; 1
    2f9e:	30 e0       	ldi	r19, 0x00	; 0
    2fa0:	04 2e       	mov	r0, r20
    2fa2:	02 c0       	rjmp	.+4      	; 0x2fa8 <DIO_u8SetPinValue+0x11c>
    2fa4:	22 0f       	add	r18, r18
    2fa6:	33 1f       	adc	r19, r19
    2fa8:	0a 94       	dec	r0
    2faa:	e2 f7       	brpl	.-8      	; 0x2fa4 <DIO_u8SetPinValue+0x118>
    2fac:	26 2b       	or	r18, r22
    2fae:	fc 01       	movw	r30, r24
    2fb0:	20 83       	st	Z, r18
				return OK;
    2fb2:	81 e0       	ldi	r24, 0x01	; 1
    2fb4:	7d c0       	rjmp	.+250    	; 0x30b0 <DIO_u8SetPinValue+0x224>
			}
			else //IF THE VALUE NEITHER HIGH NOR LOW RETURNING AN ERROR SIGNAL
				return ERROR;
    2fb6:	80 e0       	ldi	r24, 0x00	; 0
    2fb8:	7b c0       	rjmp	.+246    	; 0x30b0 <DIO_u8SetPinValue+0x224>
    case 19:
   	case 20 :
   	case 21:
    case 22:
   	case 23:
		if (Copy_u8PinValue == DIO_LOW)//CHECKING IF THE THE VALUE OF THE  REQUIRED PIN WHICH BELONGS TO DDRC IS LOW AND ASSIGN
    2fba:	8a 81       	ldd	r24, Y+2	; 0x02
    2fbc:	88 23       	and	r24, r24
    2fbe:	d9 f4       	brne	.+54     	; 0x2ff6 <DIO_u8SetPinValue+0x16a>
		{								//THE CORESSPONDING VALUE
			clrBit(PORTC,(Copy_u8PinNumber%8));
    2fc0:	85 e3       	ldi	r24, 0x35	; 53
    2fc2:	90 e0       	ldi	r25, 0x00	; 0
    2fc4:	25 e3       	ldi	r18, 0x35	; 53
    2fc6:	30 e0       	ldi	r19, 0x00	; 0
    2fc8:	f9 01       	movw	r30, r18
    2fca:	20 81       	ld	r18, Z
    2fcc:	62 2f       	mov	r22, r18
    2fce:	29 81       	ldd	r18, Y+1	; 0x01
    2fd0:	22 2f       	mov	r18, r18
    2fd2:	30 e0       	ldi	r19, 0x00	; 0
    2fd4:	a9 01       	movw	r20, r18
    2fd6:	47 70       	andi	r20, 0x07	; 7
    2fd8:	55 27       	eor	r21, r21
    2fda:	21 e0       	ldi	r18, 0x01	; 1
    2fdc:	30 e0       	ldi	r19, 0x00	; 0
    2fde:	04 2e       	mov	r0, r20
    2fe0:	02 c0       	rjmp	.+4      	; 0x2fe6 <DIO_u8SetPinValue+0x15a>
    2fe2:	22 0f       	add	r18, r18
    2fe4:	33 1f       	adc	r19, r19
    2fe6:	0a 94       	dec	r0
    2fe8:	e2 f7       	brpl	.-8      	; 0x2fe2 <DIO_u8SetPinValue+0x156>
    2fea:	20 95       	com	r18
    2fec:	26 23       	and	r18, r22
    2fee:	fc 01       	movw	r30, r24
    2ff0:	20 83       	st	Z, r18
			return OK;
    2ff2:	81 e0       	ldi	r24, 0x01	; 1
    2ff4:	5d c0       	rjmp	.+186    	; 0x30b0 <DIO_u8SetPinValue+0x224>
		}
		else if (Copy_u8PinValue == DIO_HIGH)//CHECKING IF THE THE VALUE OF THE  REQUIRED PIN WHICH BELONGS TO DDRC IS HIGH AND ASSIGN
    2ff6:	8a 81       	ldd	r24, Y+2	; 0x02
    2ff8:	81 30       	cpi	r24, 0x01	; 1
    2ffa:	d1 f4       	brne	.+52     	; 0x3030 <DIO_u8SetPinValue+0x1a4>
		{									//THE CORESSPONDING VALUE
			setBit(PORTC,(Copy_u8PinNumber%8));
    2ffc:	85 e3       	ldi	r24, 0x35	; 53
    2ffe:	90 e0       	ldi	r25, 0x00	; 0
    3000:	25 e3       	ldi	r18, 0x35	; 53
    3002:	30 e0       	ldi	r19, 0x00	; 0
    3004:	f9 01       	movw	r30, r18
    3006:	20 81       	ld	r18, Z
    3008:	62 2f       	mov	r22, r18
    300a:	29 81       	ldd	r18, Y+1	; 0x01
    300c:	22 2f       	mov	r18, r18
    300e:	30 e0       	ldi	r19, 0x00	; 0
    3010:	a9 01       	movw	r20, r18
    3012:	47 70       	andi	r20, 0x07	; 7
    3014:	55 27       	eor	r21, r21
    3016:	21 e0       	ldi	r18, 0x01	; 1
    3018:	30 e0       	ldi	r19, 0x00	; 0
    301a:	04 2e       	mov	r0, r20
    301c:	02 c0       	rjmp	.+4      	; 0x3022 <DIO_u8SetPinValue+0x196>
    301e:	22 0f       	add	r18, r18
    3020:	33 1f       	adc	r19, r19
    3022:	0a 94       	dec	r0
    3024:	e2 f7       	brpl	.-8      	; 0x301e <DIO_u8SetPinValue+0x192>
    3026:	26 2b       	or	r18, r22
    3028:	fc 01       	movw	r30, r24
    302a:	20 83       	st	Z, r18
			return OK;
    302c:	81 e0       	ldi	r24, 0x01	; 1
    302e:	40 c0       	rjmp	.+128    	; 0x30b0 <DIO_u8SetPinValue+0x224>
		}
		else //IF THE VALUE NEITHER HIGH NOR LOW RETURNING AN ERROR SIGNAL
			return ERROR;
    3030:	80 e0       	ldi	r24, 0x00	; 0
    3032:	3e c0       	rjmp	.+124    	; 0x30b0 <DIO_u8SetPinValue+0x224>
   	case 27:
   	case 28:
   	case 29:
   	case 30:
   	case 31:
		if (Copy_u8PinValue == DIO_LOW)//CHECKING IF THE THE VALUE OF THE  REQUIRED PIN WHICH BELONGS TO DDRD IS LOW AND ASSIGN
    3034:	8a 81       	ldd	r24, Y+2	; 0x02
    3036:	88 23       	and	r24, r24
    3038:	d9 f4       	brne	.+54     	; 0x3070 <DIO_u8SetPinValue+0x1e4>
		{							  //THE CORESSPONDING VALUE
			clrBit(PORTD,(Copy_u8PinNumber%8));
    303a:	82 e3       	ldi	r24, 0x32	; 50
    303c:	90 e0       	ldi	r25, 0x00	; 0
    303e:	22 e3       	ldi	r18, 0x32	; 50
    3040:	30 e0       	ldi	r19, 0x00	; 0
    3042:	f9 01       	movw	r30, r18
    3044:	20 81       	ld	r18, Z
    3046:	62 2f       	mov	r22, r18
    3048:	29 81       	ldd	r18, Y+1	; 0x01
    304a:	22 2f       	mov	r18, r18
    304c:	30 e0       	ldi	r19, 0x00	; 0
    304e:	a9 01       	movw	r20, r18
    3050:	47 70       	andi	r20, 0x07	; 7
    3052:	55 27       	eor	r21, r21
    3054:	21 e0       	ldi	r18, 0x01	; 1
    3056:	30 e0       	ldi	r19, 0x00	; 0
    3058:	04 2e       	mov	r0, r20
    305a:	02 c0       	rjmp	.+4      	; 0x3060 <DIO_u8SetPinValue+0x1d4>
    305c:	22 0f       	add	r18, r18
    305e:	33 1f       	adc	r19, r19
    3060:	0a 94       	dec	r0
    3062:	e2 f7       	brpl	.-8      	; 0x305c <DIO_u8SetPinValue+0x1d0>
    3064:	20 95       	com	r18
    3066:	26 23       	and	r18, r22
    3068:	fc 01       	movw	r30, r24
    306a:	20 83       	st	Z, r18
			return OK;
    306c:	81 e0       	ldi	r24, 0x01	; 1
    306e:	20 c0       	rjmp	.+64     	; 0x30b0 <DIO_u8SetPinValue+0x224>
		}
		else if (Copy_u8PinValue == DIO_HIGH)//CHECKING IF THE THE VALUE OF THE  REQUIRED PIN WHICH BELONGS TO DDRD IS LOW AND ASSIGN
    3070:	8a 81       	ldd	r24, Y+2	; 0x02
    3072:	81 30       	cpi	r24, 0x01	; 1
    3074:	d1 f4       	brne	.+52     	; 0x30aa <DIO_u8SetPinValue+0x21e>
		{									//THE CORESSPONDING VALUE
			setBit(PORTD,(Copy_u8PinNumber%8));
    3076:	82 e3       	ldi	r24, 0x32	; 50
    3078:	90 e0       	ldi	r25, 0x00	; 0
    307a:	22 e3       	ldi	r18, 0x32	; 50
    307c:	30 e0       	ldi	r19, 0x00	; 0
    307e:	f9 01       	movw	r30, r18
    3080:	20 81       	ld	r18, Z
    3082:	62 2f       	mov	r22, r18
    3084:	29 81       	ldd	r18, Y+1	; 0x01
    3086:	22 2f       	mov	r18, r18
    3088:	30 e0       	ldi	r19, 0x00	; 0
    308a:	a9 01       	movw	r20, r18
    308c:	47 70       	andi	r20, 0x07	; 7
    308e:	55 27       	eor	r21, r21
    3090:	21 e0       	ldi	r18, 0x01	; 1
    3092:	30 e0       	ldi	r19, 0x00	; 0
    3094:	04 2e       	mov	r0, r20
    3096:	02 c0       	rjmp	.+4      	; 0x309c <DIO_u8SetPinValue+0x210>
    3098:	22 0f       	add	r18, r18
    309a:	33 1f       	adc	r19, r19
    309c:	0a 94       	dec	r0
    309e:	e2 f7       	brpl	.-8      	; 0x3098 <DIO_u8SetPinValue+0x20c>
    30a0:	26 2b       	or	r18, r22
    30a2:	fc 01       	movw	r30, r24
    30a4:	20 83       	st	Z, r18
			return OK;
    30a6:	81 e0       	ldi	r24, 0x01	; 1
    30a8:	03 c0       	rjmp	.+6      	; 0x30b0 <DIO_u8SetPinValue+0x224>
		}
		else //IF THE VALUE NEITHER HIGH NOR LOW RETURNING AN ERROR SIGNAL
			return ERROR;
    30aa:	80 e0       	ldi	r24, 0x00	; 0
    30ac:	01 c0       	rjmp	.+2      	; 0x30b0 <DIO_u8SetPinValue+0x224>
	break;
	}
return ERROR; // RETURNING THE ERROR INDICATOR INCASE OF ANY UNEXPECTED EVENT
    30ae:	80 e0       	ldi	r24, 0x00	; 0



}
    30b0:	0f 90       	pop	r0
    30b2:	0f 90       	pop	r0
    30b4:	df 91       	pop	r29
    30b6:	cf 91       	pop	r28
    30b8:	08 95       	ret

000030ba <DIO_u8GetPortValue>:
 * **************************************************************************************************************/



u8 DIO_u8GetPortValue(u8 Copy_u8PortName,pu8 Copy_pu8ReturnedValue) // HEADER OF THE FUNCTION
{
    30ba:	cf 93       	push	r28
    30bc:	df 93       	push	r29
    30be:	00 d0       	rcall	.+0      	; 0x30c0 <DIO_u8GetPortValue+0x6>
    30c0:	1f 92       	push	r1
    30c2:	cd b7       	in	r28, 0x3d	; 61
    30c4:	de b7       	in	r29, 0x3e	; 62
    30c6:	89 83       	std	Y+1, r24	; 0x01
    30c8:	7b 83       	std	Y+3, r23	; 0x03
    30ca:	6a 83       	std	Y+2, r22	; 0x02

return Copy_u8PortName;
    30cc:	89 81       	ldd	r24, Y+1	; 0x01


}
    30ce:	0f 90       	pop	r0
    30d0:	0f 90       	pop	r0
    30d2:	0f 90       	pop	r0
    30d4:	df 91       	pop	r29
    30d6:	cf 91       	pop	r28
    30d8:	08 95       	ret

000030da <DIO_u8GetPinValue>:
 * 																												*
 * 																												*
 * **************************************************************************************************************/

u8 DIO_u8GetPinValue(u8 Copy_u8PinNumber,pu8 Copy_pu8ReturnedValue) // HEADER OF THE FUNCTION
{
    30da:	cf 93       	push	r28
    30dc:	df 93       	push	r29
    30de:	00 d0       	rcall	.+0      	; 0x30e0 <DIO_u8GetPinValue+0x6>
    30e0:	1f 92       	push	r1
    30e2:	cd b7       	in	r28, 0x3d	; 61
    30e4:	de b7       	in	r29, 0x3e	; 62
    30e6:	89 83       	std	Y+1, r24	; 0x01
    30e8:	7b 83       	std	Y+3, r23	; 0x03
    30ea:	6a 83       	std	Y+2, r22	; 0x02
	switch (Copy_u8PinNumber)
    30ec:	89 81       	ldd	r24, Y+1	; 0x01
    30ee:	88 2f       	mov	r24, r24
    30f0:	90 e0       	ldi	r25, 0x00	; 0
    30f2:	aa 27       	eor	r26, r26
    30f4:	97 fd       	sbrc	r25, 7
    30f6:	a0 95       	com	r26
    30f8:	ba 2f       	mov	r27, r26
    30fa:	40 e0       	ldi	r20, 0x00	; 0
    30fc:	50 e0       	ldi	r21, 0x00	; 0
    30fe:	2f e1       	ldi	r18, 0x1F	; 31
    3100:	30 e0       	ldi	r19, 0x00	; 0
    3102:	84 1b       	sub	r24, r20
    3104:	95 0b       	sbc	r25, r21
    3106:	28 17       	cp	r18, r24
    3108:	39 07       	cpc	r19, r25
    310a:	08 f4       	brcc	.+2      	; 0x310e <DIO_u8GetPinValue+0x34>
    310c:	63 c0       	rjmp	.+198    	; 0x31d4 <DIO_u8GetPinValue+0xfa>
    310e:	86 59       	subi	r24, 0x96	; 150
    3110:	9f 4f       	sbci	r25, 0xFF	; 255
    3112:	fc 01       	movw	r30, r24
    3114:	0c 94 6e 1a 	jmp	0x34dc	; 0x34dc <__tablejump2__>
	case 3:
	case 4:
	case 5:
	case 6:
	case 7:
         *(Copy_pu8ReturnedValue)=getBit(PINA,Copy_u8PinNumber);
    3118:	89 e3       	ldi	r24, 0x39	; 57
    311a:	90 e0       	ldi	r25, 0x00	; 0
    311c:	fc 01       	movw	r30, r24
    311e:	80 81       	ld	r24, Z
    3120:	88 2f       	mov	r24, r24
    3122:	90 e0       	ldi	r25, 0x00	; 0
    3124:	29 81       	ldd	r18, Y+1	; 0x01
    3126:	22 2f       	mov	r18, r18
    3128:	30 e0       	ldi	r19, 0x00	; 0
    312a:	02 c0       	rjmp	.+4      	; 0x3130 <DIO_u8GetPinValue+0x56>
    312c:	95 95       	asr	r25
    312e:	87 95       	ror	r24
    3130:	2a 95       	dec	r18
    3132:	e2 f7       	brpl	.-8      	; 0x312c <DIO_u8GetPinValue+0x52>
    3134:	28 2f       	mov	r18, r24
    3136:	21 70       	andi	r18, 0x01	; 1
    3138:	8a 81       	ldd	r24, Y+2	; 0x02
    313a:	9b 81       	ldd	r25, Y+3	; 0x03
    313c:	fc 01       	movw	r30, r24
    313e:	20 83       	st	Z, r18
         return OK;
    3140:	81 e0       	ldi	r24, 0x01	; 1
    3142:	49 c0       	rjmp	.+146    	; 0x31d6 <DIO_u8GetPinValue+0xfc>
	case 11:
	case 12:
	case 13:
    case 14:
	case 15:
        *(Copy_pu8ReturnedValue)=getBit(PINB,Copy_u8PinNumber%8);
    3144:	86 e3       	ldi	r24, 0x36	; 54
    3146:	90 e0       	ldi	r25, 0x00	; 0
    3148:	fc 01       	movw	r30, r24
    314a:	80 81       	ld	r24, Z
    314c:	88 2f       	mov	r24, r24
    314e:	90 e0       	ldi	r25, 0x00	; 0
    3150:	29 81       	ldd	r18, Y+1	; 0x01
    3152:	22 2f       	mov	r18, r18
    3154:	30 e0       	ldi	r19, 0x00	; 0
    3156:	27 70       	andi	r18, 0x07	; 7
    3158:	33 27       	eor	r19, r19
    315a:	02 c0       	rjmp	.+4      	; 0x3160 <DIO_u8GetPinValue+0x86>
    315c:	95 95       	asr	r25
    315e:	87 95       	ror	r24
    3160:	2a 95       	dec	r18
    3162:	e2 f7       	brpl	.-8      	; 0x315c <DIO_u8GetPinValue+0x82>
    3164:	28 2f       	mov	r18, r24
    3166:	21 70       	andi	r18, 0x01	; 1
    3168:	8a 81       	ldd	r24, Y+2	; 0x02
    316a:	9b 81       	ldd	r25, Y+3	; 0x03
    316c:	fc 01       	movw	r30, r24
    316e:	20 83       	st	Z, r18
        return OK;
    3170:	81 e0       	ldi	r24, 0x01	; 1
    3172:	31 c0       	rjmp	.+98     	; 0x31d6 <DIO_u8GetPinValue+0xfc>
    case 19:
   	case 20 :
   	case 21:
    case 22:
   	case 23:
        *(Copy_pu8ReturnedValue)=getBit(PINC,Copy_u8PinNumber%8);
    3174:	83 e3       	ldi	r24, 0x33	; 51
    3176:	90 e0       	ldi	r25, 0x00	; 0
    3178:	fc 01       	movw	r30, r24
    317a:	80 81       	ld	r24, Z
    317c:	88 2f       	mov	r24, r24
    317e:	90 e0       	ldi	r25, 0x00	; 0
    3180:	29 81       	ldd	r18, Y+1	; 0x01
    3182:	22 2f       	mov	r18, r18
    3184:	30 e0       	ldi	r19, 0x00	; 0
    3186:	27 70       	andi	r18, 0x07	; 7
    3188:	33 27       	eor	r19, r19
    318a:	02 c0       	rjmp	.+4      	; 0x3190 <DIO_u8GetPinValue+0xb6>
    318c:	95 95       	asr	r25
    318e:	87 95       	ror	r24
    3190:	2a 95       	dec	r18
    3192:	e2 f7       	brpl	.-8      	; 0x318c <DIO_u8GetPinValue+0xb2>
    3194:	28 2f       	mov	r18, r24
    3196:	21 70       	andi	r18, 0x01	; 1
    3198:	8a 81       	ldd	r24, Y+2	; 0x02
    319a:	9b 81       	ldd	r25, Y+3	; 0x03
    319c:	fc 01       	movw	r30, r24
    319e:	20 83       	st	Z, r18
        return OK;
    31a0:	81 e0       	ldi	r24, 0x01	; 1
    31a2:	19 c0       	rjmp	.+50     	; 0x31d6 <DIO_u8GetPinValue+0xfc>
   	case 27:
   	case 28:
   	case 29:
   	case 30:
   	case 31:
        *(Copy_pu8ReturnedValue)=getBit(PIND,Copy_u8PinNumber%8);
    31a4:	80 e3       	ldi	r24, 0x30	; 48
    31a6:	90 e0       	ldi	r25, 0x00	; 0
    31a8:	fc 01       	movw	r30, r24
    31aa:	80 81       	ld	r24, Z
    31ac:	88 2f       	mov	r24, r24
    31ae:	90 e0       	ldi	r25, 0x00	; 0
    31b0:	29 81       	ldd	r18, Y+1	; 0x01
    31b2:	22 2f       	mov	r18, r18
    31b4:	30 e0       	ldi	r19, 0x00	; 0
    31b6:	27 70       	andi	r18, 0x07	; 7
    31b8:	33 27       	eor	r19, r19
    31ba:	02 c0       	rjmp	.+4      	; 0x31c0 <DIO_u8GetPinValue+0xe6>
    31bc:	95 95       	asr	r25
    31be:	87 95       	ror	r24
    31c0:	2a 95       	dec	r18
    31c2:	e2 f7       	brpl	.-8      	; 0x31bc <DIO_u8GetPinValue+0xe2>
    31c4:	28 2f       	mov	r18, r24
    31c6:	21 70       	andi	r18, 0x01	; 1
    31c8:	8a 81       	ldd	r24, Y+2	; 0x02
    31ca:	9b 81       	ldd	r25, Y+3	; 0x03
    31cc:	fc 01       	movw	r30, r24
    31ce:	20 83       	st	Z, r18
        return OK;
    31d0:	81 e0       	ldi	r24, 0x01	; 1
    31d2:	01 c0       	rjmp	.+2      	; 0x31d6 <DIO_u8GetPinValue+0xfc>
        break;
   	default : return ERROR;
    31d4:	80 e0       	ldi	r24, 0x00	; 0
	}
return ERROR;



}
    31d6:	0f 90       	pop	r0
    31d8:	0f 90       	pop	r0
    31da:	0f 90       	pop	r0
    31dc:	df 91       	pop	r29
    31de:	cf 91       	pop	r28
    31e0:	08 95       	ret

000031e2 <func1>:
u8 Green_Flag=0,red_Flag=0,blue_Flag=0;

void (*arr[3])(void)={func1,func2,func3};

void func1 (void)
{
    31e2:	cf 93       	push	r28
    31e4:	df 93       	push	r29
    31e6:	cd b7       	in	r28, 0x3d	; 61
    31e8:	de b7       	in	r29, 0x3e	; 62
	if (off == Green_Flag)
    31ea:	80 91 72 00 	lds	r24, 0x0072
    31ee:	88 23       	and	r24, r24
    31f0:	41 f4       	brne	.+16     	; 0x3202 <func1+0x20>
	{
		DIO_u8SetPinValue(PIN_0,DIO_HIGH);
    31f2:	61 e0       	ldi	r22, 0x01	; 1
    31f4:	80 e0       	ldi	r24, 0x00	; 0
    31f6:	0e 94 46 17 	call	0x2e8c	; 0x2e8c <DIO_u8SetPinValue>
		Green_Flag=on;
    31fa:	81 e0       	ldi	r24, 0x01	; 1
    31fc:	80 93 72 00 	sts	0x0072, r24
    3200:	0a c0       	rjmp	.+20     	; 0x3216 <func1+0x34>
	}
	else
		if (on == Green_Flag)
    3202:	80 91 72 00 	lds	r24, 0x0072
    3206:	81 30       	cpi	r24, 0x01	; 1
    3208:	31 f4       	brne	.+12     	; 0x3216 <func1+0x34>
		{
			DIO_u8SetPinValue(PIN_0,DIO_LOW);
    320a:	60 e0       	ldi	r22, 0x00	; 0
    320c:	80 e0       	ldi	r24, 0x00	; 0
    320e:	0e 94 46 17 	call	0x2e8c	; 0x2e8c <DIO_u8SetPinValue>
			Green_Flag=off;
    3212:	10 92 72 00 	sts	0x0072, r1

		}
}
    3216:	df 91       	pop	r29
    3218:	cf 91       	pop	r28
    321a:	08 95       	ret

0000321c <func2>:


void func2 (void)
{
    321c:	cf 93       	push	r28
    321e:	df 93       	push	r29
    3220:	cd b7       	in	r28, 0x3d	; 61
    3222:	de b7       	in	r29, 0x3e	; 62
	if (off == red_Flag)
    3224:	80 91 73 00 	lds	r24, 0x0073
    3228:	88 23       	and	r24, r24
    322a:	41 f4       	brne	.+16     	; 0x323c <func2+0x20>
	{
		DIO_u8SetPinValue(PIN_1,DIO_HIGH);
    322c:	61 e0       	ldi	r22, 0x01	; 1
    322e:	81 e0       	ldi	r24, 0x01	; 1
    3230:	0e 94 46 17 	call	0x2e8c	; 0x2e8c <DIO_u8SetPinValue>
		red_Flag=on;
    3234:	81 e0       	ldi	r24, 0x01	; 1
    3236:	80 93 73 00 	sts	0x0073, r24
    323a:	0a c0       	rjmp	.+20     	; 0x3250 <func2+0x34>
	}
	else
		if (on == red_Flag)
    323c:	80 91 73 00 	lds	r24, 0x0073
    3240:	81 30       	cpi	r24, 0x01	; 1
    3242:	31 f4       	brne	.+12     	; 0x3250 <func2+0x34>
		{
			DIO_u8SetPinValue(PIN_1,DIO_LOW);
    3244:	60 e0       	ldi	r22, 0x00	; 0
    3246:	81 e0       	ldi	r24, 0x01	; 1
    3248:	0e 94 46 17 	call	0x2e8c	; 0x2e8c <DIO_u8SetPinValue>
			red_Flag=off;
    324c:	10 92 73 00 	sts	0x0073, r1

		}
}
    3250:	df 91       	pop	r29
    3252:	cf 91       	pop	r28
    3254:	08 95       	ret

00003256 <func3>:


void func3 (void)
{
    3256:	cf 93       	push	r28
    3258:	df 93       	push	r29
    325a:	cd b7       	in	r28, 0x3d	; 61
    325c:	de b7       	in	r29, 0x3e	; 62
	if (off == blue_Flag)
    325e:	80 91 74 00 	lds	r24, 0x0074
    3262:	88 23       	and	r24, r24
    3264:	41 f4       	brne	.+16     	; 0x3276 <func3+0x20>
	{
		DIO_u8SetPinValue(PIN_2,DIO_HIGH);
    3266:	61 e0       	ldi	r22, 0x01	; 1
    3268:	82 e0       	ldi	r24, 0x02	; 2
    326a:	0e 94 46 17 	call	0x2e8c	; 0x2e8c <DIO_u8SetPinValue>
		blue_Flag=on;
    326e:	81 e0       	ldi	r24, 0x01	; 1
    3270:	80 93 74 00 	sts	0x0074, r24
    3274:	0a c0       	rjmp	.+20     	; 0x328a <func3+0x34>
	}
	else
		if (on == blue_Flag)
    3276:	80 91 74 00 	lds	r24, 0x0074
    327a:	81 30       	cpi	r24, 0x01	; 1
    327c:	31 f4       	brne	.+12     	; 0x328a <func3+0x34>
		{
			DIO_u8SetPinValue(PIN_2,DIO_LOW);
    327e:	60 e0       	ldi	r22, 0x00	; 0
    3280:	82 e0       	ldi	r24, 0x02	; 2
    3282:	0e 94 46 17 	call	0x2e8c	; 0x2e8c <DIO_u8SetPinValue>
			blue_Flag=off;
    3286:	10 92 74 00 	sts	0x0074, r1

		}
}
    328a:	df 91       	pop	r29
    328c:	cf 91       	pop	r28
    328e:	08 95       	ret

00003290 <__vector_11>:



u16 OVNB=OVERFLOW_COUNTER_INITIAL;
 void __vector_11(void)
{
    3290:	1f 92       	push	r1
    3292:	0f 92       	push	r0
    3294:	00 90 5f 00 	lds	r0, 0x005F
    3298:	0f 92       	push	r0
    329a:	11 24       	eor	r1, r1
    329c:	2f 93       	push	r18
    329e:	3f 93       	push	r19
    32a0:	4f 93       	push	r20
    32a2:	5f 93       	push	r21
    32a4:	6f 93       	push	r22
    32a6:	7f 93       	push	r23
    32a8:	8f 93       	push	r24
    32aa:	9f 93       	push	r25
    32ac:	af 93       	push	r26
    32ae:	bf 93       	push	r27
    32b0:	ef 93       	push	r30
    32b2:	ff 93       	push	r31
    32b4:	cf 93       	push	r28
    32b6:	df 93       	push	r29
    32b8:	cd b7       	in	r28, 0x3d	; 61
    32ba:	de b7       	in	r29, 0x3e	; 62
else
{
}
*/

	 OVNB++;
    32bc:	80 91 75 00 	lds	r24, 0x0075
    32c0:	90 91 76 00 	lds	r25, 0x0076
    32c4:	01 96       	adiw	r24, 0x01	; 1
    32c6:	90 93 76 00 	sts	0x0076, r25
    32ca:	80 93 75 00 	sts	0x0075, r24

	 if(OVERFLOW_COUNTER_MAX==OVNB)
    32ce:	80 91 75 00 	lds	r24, 0x0075
    32d2:	90 91 76 00 	lds	r25, 0x0076
    32d6:	8f 30       	cpi	r24, 0x0F	; 15
    32d8:	91 05       	cpc	r25, r1
    32da:	59 f4       	brne	.+22     	; 0x32f2 <__vector_11+0x62>
	 {
		 schedular();
    32dc:	0e 94 96 19 	call	0x332c	; 0x332c <schedular>
		 TCNT0=TCNT0_INITIAL_VALUE;
    32e0:	82 e5       	ldi	r24, 0x52	; 82
    32e2:	90 e0       	ldi	r25, 0x00	; 0
    32e4:	20 e4       	ldi	r18, 0x40	; 64
    32e6:	fc 01       	movw	r30, r24
    32e8:	20 83       	st	Z, r18
		 OVNB=OVERFLOW_COUNTER_INITIAL;
    32ea:	10 92 76 00 	sts	0x0076, r1
    32ee:	10 92 75 00 	sts	0x0075, r1
	 else
	 {


	 }
}
    32f2:	df 91       	pop	r29
    32f4:	cf 91       	pop	r28
    32f6:	ff 91       	pop	r31
    32f8:	ef 91       	pop	r30
    32fa:	bf 91       	pop	r27
    32fc:	af 91       	pop	r26
    32fe:	9f 91       	pop	r25
    3300:	8f 91       	pop	r24
    3302:	7f 91       	pop	r23
    3304:	6f 91       	pop	r22
    3306:	5f 91       	pop	r21
    3308:	4f 91       	pop	r20
    330a:	3f 91       	pop	r19
    330c:	2f 91       	pop	r18
    330e:	0f 90       	pop	r0
    3310:	00 92 5f 00 	sts	0x005F, r0
    3314:	0f 90       	pop	r0
    3316:	1f 90       	pop	r1
    3318:	18 95       	reti

0000331a <main>:

void main(void)
{
    331a:	cf 93       	push	r28
    331c:	df 93       	push	r29
    331e:	cd b7       	in	r28, 0x3d	; 61
    3320:	de b7       	in	r29, 0x3e	; 62


DIO_voidInitialize();
    3322:	0e 94 c8 15 	call	0x2b90	; 0x2b90 <DIO_voidInitialize>
TIMER0_init();
    3326:	0e 94 f0 19 	call	0x33e0	; 0x33e0 <TIMER0_init>
while (1)
{



}
    332a:	ff cf       	rjmp	.-2      	; 0x332a <main+0x10>

0000332c <schedular>:
return;
}


void schedular (void)
{
    332c:	cf 93       	push	r28
    332e:	df 93       	push	r29
    3330:	1f 92       	push	r1
    3332:	cd b7       	in	r28, 0x3d	; 61
    3334:	de b7       	in	r29, 0x3e	; 62
	u8 i;
	for (i=0;i<3;i++)
    3336:	19 82       	std	Y+1, r1	; 0x01
    3338:	4b c0       	rjmp	.+150    	; 0x33d0 <schedular+0xa4>
	{
		if (swTask[i].First_Delay==0)
    333a:	89 81       	ldd	r24, Y+1	; 0x01
    333c:	88 2f       	mov	r24, r24
    333e:	90 e0       	ldi	r25, 0x00	; 0
    3340:	88 0f       	add	r24, r24
    3342:	99 1f       	adc	r25, r25
    3344:	88 0f       	add	r24, r24
    3346:	99 1f       	adc	r25, r25
    3348:	8f 59       	subi	r24, 0x9F	; 159
    334a:	9f 4f       	sbci	r25, 0xFF	; 255
    334c:	fc 01       	movw	r30, r24
    334e:	80 81       	ld	r24, Z
    3350:	88 23       	and	r24, r24
    3352:	31 f5       	brne	.+76     	; 0x33a0 <schedular+0x74>
		{
			(swTask[i].ptr)();
    3354:	89 81       	ldd	r24, Y+1	; 0x01
    3356:	88 2f       	mov	r24, r24
    3358:	90 e0       	ldi	r25, 0x00	; 0
    335a:	88 0f       	add	r24, r24
    335c:	99 1f       	adc	r25, r25
    335e:	88 0f       	add	r24, r24
    3360:	99 1f       	adc	r25, r25
    3362:	8e 59       	subi	r24, 0x9E	; 158
    3364:	9f 4f       	sbci	r25, 0xFF	; 255
    3366:	fc 01       	movw	r30, r24
    3368:	80 81       	ld	r24, Z
    336a:	91 81       	ldd	r25, Z+1	; 0x01
    336c:	fc 01       	movw	r30, r24
    336e:	09 95       	icall
			swTask[i].First_Delay=swTask[i].Periodicity-1;
    3370:	89 81       	ldd	r24, Y+1	; 0x01
    3372:	88 2f       	mov	r24, r24
    3374:	90 e0       	ldi	r25, 0x00	; 0
    3376:	29 81       	ldd	r18, Y+1	; 0x01
    3378:	22 2f       	mov	r18, r18
    337a:	30 e0       	ldi	r19, 0x00	; 0
    337c:	22 0f       	add	r18, r18
    337e:	33 1f       	adc	r19, r19
    3380:	22 0f       	add	r18, r18
    3382:	33 1f       	adc	r19, r19
    3384:	20 5a       	subi	r18, 0xA0	; 160
    3386:	3f 4f       	sbci	r19, 0xFF	; 255
    3388:	f9 01       	movw	r30, r18
    338a:	20 81       	ld	r18, Z
    338c:	21 50       	subi	r18, 0x01	; 1
    338e:	88 0f       	add	r24, r24
    3390:	99 1f       	adc	r25, r25
    3392:	88 0f       	add	r24, r24
    3394:	99 1f       	adc	r25, r25
    3396:	8f 59       	subi	r24, 0x9F	; 159
    3398:	9f 4f       	sbci	r25, 0xFF	; 255
    339a:	fc 01       	movw	r30, r24
    339c:	20 83       	st	Z, r18
    339e:	15 c0       	rjmp	.+42     	; 0x33ca <schedular+0x9e>
		}
		else
		{
			swTask[i].First_Delay--;
    33a0:	89 81       	ldd	r24, Y+1	; 0x01
    33a2:	88 2f       	mov	r24, r24
    33a4:	90 e0       	ldi	r25, 0x00	; 0
    33a6:	9c 01       	movw	r18, r24
    33a8:	22 0f       	add	r18, r18
    33aa:	33 1f       	adc	r19, r19
    33ac:	22 0f       	add	r18, r18
    33ae:	33 1f       	adc	r19, r19
    33b0:	2f 59       	subi	r18, 0x9F	; 159
    33b2:	3f 4f       	sbci	r19, 0xFF	; 255
    33b4:	f9 01       	movw	r30, r18
    33b6:	20 81       	ld	r18, Z
    33b8:	21 50       	subi	r18, 0x01	; 1
    33ba:	88 0f       	add	r24, r24
    33bc:	99 1f       	adc	r25, r25
    33be:	88 0f       	add	r24, r24
    33c0:	99 1f       	adc	r25, r25
    33c2:	8f 59       	subi	r24, 0x9F	; 159
    33c4:	9f 4f       	sbci	r25, 0xFF	; 255
    33c6:	fc 01       	movw	r30, r24
    33c8:	20 83       	st	Z, r18


void schedular (void)
{
	u8 i;
	for (i=0;i<3;i++)
    33ca:	89 81       	ldd	r24, Y+1	; 0x01
    33cc:	8f 5f       	subi	r24, 0xFF	; 255
    33ce:	89 83       	std	Y+1, r24	; 0x01
    33d0:	89 81       	ldd	r24, Y+1	; 0x01
    33d2:	83 30       	cpi	r24, 0x03	; 3
    33d4:	08 f4       	brcc	.+2      	; 0x33d8 <schedular+0xac>
    33d6:	b1 cf       	rjmp	.-158    	; 0x333a <schedular+0xe>





}
    33d8:	0f 90       	pop	r0
    33da:	df 91       	pop	r29
    33dc:	cf 91       	pop	r28
    33de:	08 95       	ret

000033e0 <TIMER0_init>:




void TIMER0_init(void)
{
    33e0:	cf 93       	push	r28
    33e2:	df 93       	push	r29
    33e4:	cd b7       	in	r28, 0x3d	; 61
    33e6:	de b7       	in	r29, 0x3e	; 62
//	SREG=SREG_ENABLED; // global enable
//	TIMSK=TIMER0_ENABLED; // enable timer 0
//TCCR0=0x05; // prescaler and working mood
	TCNT0=TCNT0_INITIAL_VALUE; // Timer initial value
    33e8:	82 e5       	ldi	r24, 0x52	; 82
    33ea:	90 e0       	ldi	r25, 0x00	; 0
    33ec:	20 e4       	ldi	r18, 0x40	; 64
    33ee:	fc 01       	movw	r30, r24
    33f0:	20 83       	st	Z, r18



	TCCR0|=(FOC0_STATUS<<FOC0)|(WGM00_STATUS<<WGM00)|(COM01_STATUS<<COM01)|(COM00_STATUS<<COM00)
    33f2:	83 e5       	ldi	r24, 0x53	; 83
    33f4:	90 e0       	ldi	r25, 0x00	; 0
    33f6:	23 e5       	ldi	r18, 0x53	; 83
    33f8:	30 e0       	ldi	r19, 0x00	; 0
    33fa:	f9 01       	movw	r30, r18
    33fc:	20 81       	ld	r18, Z
    33fe:	25 60       	ori	r18, 0x05	; 5
    3400:	fc 01       	movw	r30, r24
    3402:	20 83       	st	Z, r18
					|(WGM01_STATUS<<WGM01)|(CS02_STATUS<<CS02)|(CS01_STATUS<<CS01)|(CS00_STATUS<<CS00);


	TIMSK|=(OCIE0_STATUS<<OCIE0)|(TOIE0_STATUS<<TOIE0);
    3404:	89 e5       	ldi	r24, 0x59	; 89
    3406:	90 e0       	ldi	r25, 0x00	; 0
    3408:	29 e5       	ldi	r18, 0x59	; 89
    340a:	30 e0       	ldi	r19, 0x00	; 0
    340c:	f9 01       	movw	r30, r18
    340e:	20 81       	ld	r18, Z
    3410:	21 60       	ori	r18, 0x01	; 1
    3412:	fc 01       	movw	r30, r24
    3414:	20 83       	st	Z, r18
	//TIFR |=(OCF0_STATUS<<OCF0)|(TOV0_STATUS<<TOV0);
	SREG|=(GLOBAL_INTERRUPT_STATUS<<GLOBAL_INTERRUPT);
    3416:	8f e5       	ldi	r24, 0x5F	; 95
    3418:	90 e0       	ldi	r25, 0x00	; 0
    341a:	2f e5       	ldi	r18, 0x5F	; 95
    341c:	30 e0       	ldi	r19, 0x00	; 0
    341e:	f9 01       	movw	r30, r18
    3420:	20 81       	ld	r18, Z
    3422:	20 68       	ori	r18, 0x80	; 128
    3424:	fc 01       	movw	r30, r24
    3426:	20 83       	st	Z, r18


}
    3428:	df 91       	pop	r29
    342a:	cf 91       	pop	r28
    342c:	08 95       	ret

0000342e <main1>:
//
//}
//}

void main1(void)
{
    342e:	cf 93       	push	r28
    3430:	df 93       	push	r29
    3432:	cd b7       	in	r28, 0x3d	; 61
    3434:	de b7       	in	r29, 0x3e	; 62

DIO_voidInitialize();
    3436:	0e 94 c8 15 	call	0x2b90	; 0x2b90 <DIO_voidInitialize>
TIMER0_init();
    343a:	0e 94 f0 19 	call	0x33e0	; 0x33e0 <TIMER0_init>

while (1)
{


}
    343e:	ff cf       	rjmp	.-2      	; 0x343e <main1+0x10>

00003440 <main2>:

}
*/

void main2(void)
{
    3440:	cf 93       	push	r28
    3442:	df 93       	push	r29
    3444:	cd b7       	in	r28, 0x3d	; 61
    3446:	de b7       	in	r29, 0x3e	; 62

DIO_voidInitialize();
    3448:	0e 94 c8 15 	call	0x2b90	; 0x2b90 <DIO_voidInitialize>
TIMER0_init();
    344c:	0e 94 f0 19 	call	0x33e0	; 0x33e0 <TIMER0_init>

while (1)
{


}
    3450:	ff cf       	rjmp	.-2      	; 0x3450 <main2+0x10>

00003452 <delay_ms>:
 *  Created on: Dec 13, 2016
 *      Author: Russel
 */
#include "delay_ms.h"

void delay_ms(u32 delay_Value){
    3452:	cf 93       	push	r28
    3454:	df 93       	push	r29
    3456:	cd b7       	in	r28, 0x3d	; 61
    3458:	de b7       	in	r29, 0x3e	; 62
    345a:	28 97       	sbiw	r28, 0x08	; 8
    345c:	0f b6       	in	r0, 0x3f	; 63
    345e:	f8 94       	cli
    3460:	de bf       	out	0x3e, r29	; 62
    3462:	0f be       	out	0x3f, r0	; 63
    3464:	cd bf       	out	0x3d, r28	; 61
    3466:	6d 83       	std	Y+5, r22	; 0x05
    3468:	7e 83       	std	Y+6, r23	; 0x06
    346a:	8f 83       	std	Y+7, r24	; 0x07
    346c:	98 87       	std	Y+8, r25	; 0x08
u32 counter;
while (delay_Value)
    346e:	25 c0       	rjmp	.+74     	; 0x34ba <delay_ms+0x68>
{
	//112 is the right one

	for (counter=MIN_FOR_NOP;counter<MAX__FOR_NOP;counter++)
    3470:	19 82       	std	Y+1, r1	; 0x01
    3472:	1a 82       	std	Y+2, r1	; 0x02
    3474:	1b 82       	std	Y+3, r1	; 0x03
    3476:	1c 82       	std	Y+4, r1	; 0x04
    3478:	0c c0       	rjmp	.+24     	; 0x3492 <delay_ms+0x40>
	{
		asm ("nop");
    347a:	00 00       	nop
u32 counter;
while (delay_Value)
{
	//112 is the right one

	for (counter=MIN_FOR_NOP;counter<MAX__FOR_NOP;counter++)
    347c:	89 81       	ldd	r24, Y+1	; 0x01
    347e:	9a 81       	ldd	r25, Y+2	; 0x02
    3480:	ab 81       	ldd	r26, Y+3	; 0x03
    3482:	bc 81       	ldd	r27, Y+4	; 0x04
    3484:	01 96       	adiw	r24, 0x01	; 1
    3486:	a1 1d       	adc	r26, r1
    3488:	b1 1d       	adc	r27, r1
    348a:	89 83       	std	Y+1, r24	; 0x01
    348c:	9a 83       	std	Y+2, r25	; 0x02
    348e:	ab 83       	std	Y+3, r26	; 0x03
    3490:	bc 83       	std	Y+4, r27	; 0x04
    3492:	89 81       	ldd	r24, Y+1	; 0x01
    3494:	9a 81       	ldd	r25, Y+2	; 0x02
    3496:	ab 81       	ldd	r26, Y+3	; 0x03
    3498:	bc 81       	ldd	r27, Y+4	; 0x04
    349a:	8f 36       	cpi	r24, 0x6F	; 111
    349c:	91 05       	cpc	r25, r1
    349e:	a1 05       	cpc	r26, r1
    34a0:	b1 05       	cpc	r27, r1
    34a2:	58 f3       	brcs	.-42     	; 0x347a <delay_ms+0x28>
	{
		asm ("nop");

	}

delay_Value--;
    34a4:	8d 81       	ldd	r24, Y+5	; 0x05
    34a6:	9e 81       	ldd	r25, Y+6	; 0x06
    34a8:	af 81       	ldd	r26, Y+7	; 0x07
    34aa:	b8 85       	ldd	r27, Y+8	; 0x08
    34ac:	01 97       	sbiw	r24, 0x01	; 1
    34ae:	a1 09       	sbc	r26, r1
    34b0:	b1 09       	sbc	r27, r1
    34b2:	8d 83       	std	Y+5, r24	; 0x05
    34b4:	9e 83       	std	Y+6, r25	; 0x06
    34b6:	af 83       	std	Y+7, r26	; 0x07
    34b8:	b8 87       	std	Y+8, r27	; 0x08
 */
#include "delay_ms.h"

void delay_ms(u32 delay_Value){
u32 counter;
while (delay_Value)
    34ba:	8d 81       	ldd	r24, Y+5	; 0x05
    34bc:	9e 81       	ldd	r25, Y+6	; 0x06
    34be:	af 81       	ldd	r26, Y+7	; 0x07
    34c0:	b8 85       	ldd	r27, Y+8	; 0x08
    34c2:	00 97       	sbiw	r24, 0x00	; 0
    34c4:	a1 05       	cpc	r26, r1
    34c6:	b1 05       	cpc	r27, r1
    34c8:	99 f6       	brne	.-90     	; 0x3470 <delay_ms+0x1e>
delay_Value--;
}



}
    34ca:	28 96       	adiw	r28, 0x08	; 8
    34cc:	0f b6       	in	r0, 0x3f	; 63
    34ce:	f8 94       	cli
    34d0:	de bf       	out	0x3e, r29	; 62
    34d2:	0f be       	out	0x3f, r0	; 63
    34d4:	cd bf       	out	0x3d, r28	; 61
    34d6:	df 91       	pop	r29
    34d8:	cf 91       	pop	r28
    34da:	08 95       	ret

000034dc <__tablejump2__>:
    34dc:	ee 0f       	add	r30, r30
    34de:	ff 1f       	adc	r31, r31

000034e0 <__tablejump__>:
    34e0:	05 90       	lpm	r0, Z+
    34e2:	f4 91       	lpm	r31, Z
    34e4:	e0 2d       	mov	r30, r0
    34e6:	09 94       	ijmp

000034e8 <_exit>:
    34e8:	f8 94       	cli

000034ea <__stop_program>:
    34ea:	ff cf       	rjmp	.-2      	; 0x34ea <__stop_program>
